ccopy_reg
_reconstructor
p0
(cpsychopy.data.experiment
ExperimentHandler
p1
c__builtin__
object
p2
Ntp3
Rp4
(dp5
S'originPath'
p6
NsS'dataFileName'
p7
V/Users/monica/Documents/GitHub/ABCD_nback/data/NDAR_INVABCD1234/NDAR_INVABCD1234
p8
sS'runtimeInfo'
p9
NsS'name'
p10
S'Emo_Nback_20180527'
p11
sS'dataNames'
p12
(lp13
S'Stim.RESP'
p14
aS'Stim.RT'
p15
aS'Stim.CRESP'
p16
aS'Stim.StartTime'
p17
aS'Stim.FinishTime'
p18
aS'Stim.Duration'
p19
aS'Stim.OnsetTime'
p20
aS'Fix.StartTime'
p21
aS'Stim.RTTime'
p22
aS'Stim.OffsetTime'
p23
aS'Fix.OnsetTime'
p24
aS'Fix.Duration'
p25
aS'Fix.OffsetTime'
p26
aS'Fix.FinishTime'
p27
aS'Stim.ACC'
p28
asS'autoLog'
p29
I01
sS'extraInfo'
p30
(dp31
S'FontStyle'
p32
S'Verdana'
p33
sS'Group'
p34
I1
sVHandedness
p35
VRight
p36
sVNARGUID
p37
VABCD1234
p38
sS'SUBID'
p39
I0
sS'TotalRespGreater200[Session]'
p40
I0
sVVersion
p41
I1
sS'SessionTime'
p42
S'18:25:00'
p43
sS'RuntimeCapabilities'
p44
S'Professional'
p45
sS'SessionStart'
p46
S''
p47
sVRun
p48
VAll
p49
sS'ConsecNonResp[Session]'
p50
I0
sS'StudioVersion'
p51
S'2.0.10.252'
p52
sS'ExperimentName'
p53
g11
sS'ConsecRTLess200[Session]'
p54
I0
sS'SessionDate'
p55
S'06/25/2018'
p56
sS'Main.RefreshRate'
p57
cnumpy.core.multiarray
scalar
p58
(cnumpy
dtype
p59
(S'f8'
p60
I0
I1
tp61
Rp62
(I3
S'<'
p63
NNNI-1
I-1
I0
tp64
bS'P\x98\nA\x0c\x10N@'
p65
tp66
Rp67
sS'DataFile.Basename'
p68
VEmo_Nback_20180527_v1-ABCD1234
p69
sS'Target'
p70
I1
sS'RunNumber'
p71
I1
sS'Nontarget'
p72
(lp73
S'2'
p74
aS'num_2'
p75
aS'right'
p76
asS'Clock.Information'
p77
I0
sS'date'
p78
S'2018-06-25_182500'
p79
sS'RuntimeVersionExpected'
p80
S'2.0.10.356'
p81
sVDebugging
p82
I01
sS'ExperimentVersion'
p83
S'1.0.0.1180'
p84
sS'RuntimeVersion'
p85
g81
sS'TrialsPerRun[Session]'
p86
I160
sVSession
p87
VRecMem
p88
sS'Allowed'
p89
(lp90
S'1'
p91
aS'num_1'
p92
aS'left'
p93
ag74
ag75
ag76
asS'StimuliDir'
p94
S'Stimuli/'
p95
sS'Subject'
p96
I1
ssS'loopsUnfinished'
p97
(lp98
sS'saveWideText'
p99
I00
sS'thisEntry'
p100
(dp101
sS'version'
p102
g47
sS'_paramNamesSoFar'
p103
(lp104
S'Stimulus'
p105
aS'TargetType'
p106
aS'BlockType'
p107
aS'Stim_CRESP'
p108
asS'entries'
p109
(lp110
(dp111
g17
I10772
sg106
Vnewposface
p112
sg16
VNew
p113
sg32
g33
sg34
I1
sg46
g47
sg35
g36
sS'RecMemPractice.thisRepN'
p114
I0
sg37
g38
sg39
I0
sg23
I12742
sg41
I1
sg42
g43
sg44
g45
sg107
VRec
p115
sg14
S'1'
p116
sg77
I0
sg86
I160
sg21
I12742
sg68
g69
sg48
g49
sg50
I0
sg22
I12111
sS'RecMemPractice.thisTrialN'
p117
I0
sg51
g52
sg28
I0
sg27
I13242
sg54
I0
sg15
I1338
sg89
g90
sg57
g67
sg55
g56
sg70
I1
sg105
VStimuli/PracticeRec4.bmp
p118
sg71
I1
sg72
g73
sg19
I2000
sg78
g79
sg20
I10772
sS'RecMemPractice.thisN'
p119
I0
sg80
g81
sg53
g11
sg82
I01
sg85
g81
sg83
g84
sg18
I12742
sg87
g88
sg24
I12742
sg25
I500
sg26
I13242
sg94
g95
sg40
I0
sg108
g113
sS'RecMemPractice.thisIndex'
p120
g58
(g59
(S'i8'
p121
I0
I1
tp122
Rp123
(I3
S'<'
p124
NNNI-1
I-1
I0
tp125
bS'\x00\x00\x00\x00\x00\x00\x00\x00'
p126
tp127
Rp128
sg96
I1
sa(dp129
g17
I14747
sg106
Voldposface
p130
sg16
VOld
p131
sg32
g33
sg34
I1
sg46
g47
sg35
g36
sS'RecMemPractice.thisRepN'
p132
I0
sg37
g38
sg39
I0
sg23
I16743
sg41
I1
sg42
g43
sg44
g45
sg107
g115
sg14
g116
sg77
I0
sg86
I160
sg21
I16744
sg68
g69
sg48
g49
sg50
I0
sg22
I16478
sS'RecMemPractice.thisTrialN'
p133
I1
sg51
g52
sg28
I1
sg27
I17243
sg54
I0
sg15
I1730
sg89
g90
sg57
g67
sg55
g56
sg70
I1
sg105
VStimuli/PracticeHO2.bmp
p134
sg71
I1
sg72
g73
sg19
I2000
sg78
g79
sg20
I14747
sS'RecMemPractice.thisN'
p135
I1
sg80
g81
sg53
g11
sg82
I01
sg85
g81
sg83
g84
sg18
I16744
sg87
g88
sg24
I16744
sg25
I500
sg26
I17243
sg94
g95
sg40
I0
sg108
g131
sS'RecMemPractice.thisIndex'
p136
g58
(g123
S'\x01\x00\x00\x00\x00\x00\x00\x00'
p137
tp138
Rp139
sg96
I1
sa(dp140
g17
I34044
sS'TargetType'
p141
Vnewneutface
p142
sg16
VNew
p143
sg32
g33
sg34
I1
sS'RecMemTask.thisN'
p144
I0
sg46
g47
sg35
g36
sg37
g38
sg39
I0
sg23
I36046
sg41
I1
sg42
g43
sg44
g45
sS'RecMemTask.thisIndex'
p145
g58
(g123
S'\x00\x00\x00\x00\x00\x00\x00\x00'
p146
tp147
Rp148
sS'BlockType'
p149
VRec
p150
sg14
g47
sg77
I0
sg86
I160
sg21
I36046
sg68
g69
sg48
g49
sg50
I0
sg22
I0
sg51
g52
sg28
I0
sg27
I36546
sg54
I0
sg15
I0
sg89
g90
sg57
g67
sS'RecMemTask.thisTrialN'
p151
I0
sg55
g56
sg70
I1
sS'Stimulus'
p152
VStimuli/AF219_NC.bmp
p153
sg71
I1
sg72
g73
sg19
I2000
sg78
g79
sg20
I34044
sg53
g11
sS'RecMemTask.thisRepN'
p154
I0
sg82
I01
sg85
g81
sg83
g84
sg18
I36046
sg87
g88
sg24
I36046
sg25
I500
sg26
I36546
sg94
g95
sg40
I0
sS'Stim_CRESP'
p155
g143
sg80
g81
sg96
I1
sa(dp156
g17
I36552
sg141
Vnewplace
p157
sg16
g143
sg32
g33
sg34
I1
sS'RecMemTask.thisN'
p158
I1
sg46
g47
sg35
g36
sg37
g38
sg39
I0
sg23
I38546
sg41
I1
sg42
g43
sg44
g45
sS'RecMemTask.thisIndex'
p159
g58
(g123
S'\x01\x00\x00\x00\x00\x00\x00\x00'
p160
tp161
Rp162
sg149
g150
sg14
g116
sg77
I0
sg86
I160
sg21
I38546
sg68
g69
sg48
g49
sg50
I0
sg22
I37732
sg51
g52
sg28
I0
sg27
I39046
sg54
I0
sg15
I1178
sg89
g90
sg57
g67
sS'RecMemTask.thisTrialN'
p163
I1
sg55
g56
sg70
I1
sg152
VStimuli/PL_056_TUFTS02BW.bmp
p164
sg71
I1
sg72
g73
sg19
I2000
sg78
g79
sg20
I36553
sg53
g11
sS'RecMemTask.thisRepN'
p165
I0
sg82
I01
sg85
g81
sg83
g84
sg18
I38546
sg87
g88
sg24
I38546
sg25
I500
sg26
I39046
sg94
g95
sg40
I0
sg155
g143
sg80
g81
sg96
I1
sa(dp166
g17
I39051
sg141
Voldneutface
p167
sg16
VOld
p168
sg32
g33
sg34
I1
sS'RecMemTask.thisN'
p169
I2
sg46
g47
sg35
g36
sg37
g38
sg39
I0
sg23
I41047
sg41
I1
sg42
g43
sg44
g45
sS'RecMemTask.thisIndex'
p170
g58
(g123
S'\x02\x00\x00\x00\x00\x00\x00\x00'
p171
tp172
Rp173
sg149
g150
sg14
g116
sg77
I0
sg86
I160
sg21
I41047
sg68
g69
sg48
g49
sg50
I0
sg22
I39449
sg51
g52
sg28
I1
sg27
I41546
sg54
I0
sg15
I397
sg89
g90
sg57
g67
sS'RecMemTask.thisTrialN'
p174
I2
sg55
g56
sg70
I1
sg152
VStimuli/AM228_NC.bmp
p175
sg71
I1
sg72
g73
sg19
I2000
sg78
g79
sg20
I39051
sg53
g11
sS'RecMemTask.thisRepN'
p176
I0
sg82
I01
sg85
g81
sg83
g84
sg18
I41047
sg87
g88
sg24
I41047
sg25
I500
sg26
I41546
sg94
g95
sg40
I0
sg155
g168
sg80
g81
sg96
I1
sa(dp177
g17
I41552
sg141
Voldplace
p178
sg16
g168
sg32
g33
sg34
I1
sS'RecMemTask.thisN'
p179
I3
sg46
g47
sg35
g36
sg37
g38
sg39
I0
sg23
I43546
sg41
I1
sg42
g43
sg44
g45
sS'RecMemTask.thisIndex'
p180
g58
(g123
S'\x03\x00\x00\x00\x00\x00\x00\x00'
p181
tp182
Rp183
sg149
g150
sg14
S'2'
p184
sg77
I0
sg86
I160
sg21
I43546
sg68
g69
sg48
g49
sg50
I0
sg22
I41898
sg51
g52
sg28
I0
sg27
I44047
sg54
I0
sg15
I345
sg89
g90
sg57
g67
sS'RecMemTask.thisTrialN'
p185
I3
sg55
g56
sg70
I1
sg152
VStimuli/PL_001_92012.bmp
p186
sg71
I1
sg72
g73
sg19
I2000
sg78
g79
sg20
I41552
sg53
g11
sS'RecMemTask.thisRepN'
p187
I0
sg82
I01
sg85
g81
sg83
g84
sg18
I43546
sg87
g88
sg24
I43546
sg25
I500
sg26
I44047
sg94
g95
sg40
I0
sg155
g168
sg80
g81
sg96
I1
sa(dp188
g17
I44053
sg141
Vnewposface
p189
sg16
g143
sg32
g33
sg34
I1
sS'RecMemTask.thisN'
p190
I4
sg46
g47
sg35
g36
sg37
g38
sg39
I0
sg23
I46047
sg41
I1
sg42
g43
sg44
g45
sS'RecMemTask.thisIndex'
p191
g58
(g123
S'\x04\x00\x00\x00\x00\x00\x00\x00'
p192
tp193
Rp194
sg149
g150
sg14
g184
sg77
I0
sg86
I160
sg21
I46047
sg68
g69
sg48
g49
sg50
I0
sg22
I44399
sg51
g52
sg28
I1
sg27
I46547
sg54
I0
sg15
I345
sg89
g90
sg57
g67
sS'RecMemTask.thisTrialN'
p195
I4
sg55
g56
sg70
I1
sg152
VStimuli/AM01_HO.bmp
p196
sg71
I1
sg72
g73
sg19
I2000
sg78
g79
sg20
I44053
sg53
g11
sS'RecMemTask.thisRepN'
p197
I0
sg82
I01
sg85
g81
sg83
g84
sg18
I46047
sg87
g88
sg24
I46047
sg25
I500
sg26
I46547
sg94
g95
sg40
I0
sg155
g143
sg80
g81
sg96
I1
sa(dp198
g17
I46553
sg141
g178
sg16
g168
sg32
g33
sg34
I1
sS'RecMemTask.thisN'
p199
I5
sg46
g47
sg35
g36
sg37
g38
sg39
I0
sg23
I48547
sg41
I1
sg42
g43
sg44
g45
sS'RecMemTask.thisIndex'
p200
g58
(g123
S'\x05\x00\x00\x00\x00\x00\x00\x00'
p201
tp202
Rp203
sg149
g150
sg14
g116
sg77
I0
sg86
I160
sg21
I48547
sg68
g69
sg48
g49
sg50
I0
sg22
I46950
sg51
g52
sg28
I1
sg27
I49047
sg54
I0
sg15
I396
sg89
g90
sg57
g67
sS'RecMemTask.thisTrialN'
p204
I5
sg55
g56
sg70
I1
sg152
VStimuli/PL_009_92037.bmp
p205
sg71
I1
sg72
g73
sg19
I2000
sg78
g79
sg20
I46553
sg53
g11
sS'RecMemTask.thisRepN'
p206
I0
sg82
I01
sg85
g81
sg83
g84
sg18
I48547
sg87
g88
sg24
I48547
sg25
I500
sg26
I49047
sg94
g95
sg40
I0
sg155
g168
sg80
g81
sg96
I1
sa(dp207
g17
I49054
sg141
Voldnegface
p208
sg16
g168
sg32
g33
sg34
I1
sS'RecMemTask.thisN'
p209
I6
sg46
g47
sg35
g36
sg37
g38
sg39
I0
sg23
I51047
sg41
I1
sg42
g43
sg44
g45
sS'RecMemTask.thisIndex'
p210
g58
(g123
S'\x06\x00\x00\x00\x00\x00\x00\x00'
p211
tp212
Rp213
sg149
g150
sg14
g116
sg77
I0
sg86
I160
sg21
I51047
sg68
g69
sg48
g49
sg50
I0
sg22
I49434
sg51
g52
sg28
I1
sg27
I51548
sg54
I0
sg15
I379
sg89
g90
sg57
g67
sS'RecMemTask.thisTrialN'
p214
I6
sg55
g56
sg70
I1
sg152
VStimuli/HM03_FO.bmp
p215
sg71
I1
sg72
g73
sg19
I2000
sg78
g79
sg20
I49054
sg53
g11
sS'RecMemTask.thisRepN'
p216
I0
sg82
I01
sg85
g81
sg83
g84
sg18
I51047
sg87
g88
sg24
I51047
sg25
I500
sg26
I51548
sg94
g95
sg40
I0
sg155
g168
sg80
g81
sg96
I1
sa(dp217
g17
I51553
sg141
Vnewnegface
p218
sg16
g143
sg32
g33
sg34
I1
sS'RecMemTask.thisN'
p219
I7
sg46
g47
sg35
g36
sg37
g38
sg39
I0
sg23
I53548
sg41
I1
sg42
g43
sg44
g45
sS'RecMemTask.thisIndex'
p220
g58
(g123
S'\x07\x00\x00\x00\x00\x00\x00\x00'
p221
tp222
Rp223
sg149
g150
sg14
g116
sg77
I0
sg86
I160
sg21
I53548
sg68
g69
sg48
g49
sg50
I0
sg22
I51832
sg51
g52
sg28
I0
sg27
I54048
sg54
I0
sg15
I278
sg89
g90
sg57
g67
sS'RecMemTask.thisTrialN'
p224
I7
sg55
g56
sg70
I1
sg152
VStimuli/BF04_FO.bmp
p225
sg71
I1
sg72
g73
sg19
I2000
sg78
g79
sg20
I51553
sg53
g11
sS'RecMemTask.thisRepN'
p226
I0
sg82
I01
sg85
g81
sg83
g84
sg18
I53548
sg87
g88
sg24
I53548
sg25
I500
sg26
I54048
sg94
g95
sg40
I0
sg155
g143
sg80
g81
sg96
I1
sa(dp227
g17
I54052
sg141
g167
sg16
g168
sg32
g33
sg34
I1
sS'RecMemTask.thisN'
p228
I8
sg46
g47
sg35
g36
sg37
g38
sg39
I0
sg23
I56048
sg41
I1
sg42
g43
sg44
g45
sS'RecMemTask.thisIndex'
p229
g58
(g123
S'\x08\x00\x00\x00\x00\x00\x00\x00'
p230
tp231
Rp232
sg149
g150
sg14
g116
sg77
I0
sg86
I160
sg21
I56048
sg68
g69
sg48
g49
sg50
I0
sg22
I54365
sg51
g52
sg28
I1
sg27
I56548
sg54
I0
sg15
I298
sg89
g90
sg57
g67
sS'RecMemTask.thisTrialN'
p233
I8
sg55
g56
sg70
I1
sg152
VStimuli/LF227_NC.bmp
p234
sg71
I1
sg72
g73
sg19
I2000
sg78
g79
sg20
I54052
sg53
g11
sS'RecMemTask.thisRepN'
p235
I0
sg82
I01
sg85
g81
sg83
g84
sg18
I56048
sg87
g88
sg24
I56048
sg25
I500
sg26
I56548
sg94
g95
sg40
I0
sg155
g168
sg80
g81
sg96
I1
sa(dp236
g17
I56554
sg141
Voldposface
p237
sg16
g168
sg32
g33
sg34
I1
sS'RecMemTask.thisN'
p238
I9
sg46
g47
sg35
g36
sg37
g38
sg39
I0
sg23
I58549
sg41
I1
sg42
g43
sg44
g45
sS'RecMemTask.thisIndex'
p239
g58
(g123
S'\t\x00\x00\x00\x00\x00\x00\x00'
p240
tp241
Rp242
sg149
g150
sg14
g116
sg77
I0
sg86
I160
sg21
I58549
sg68
g69
sg48
g49
sg50
I0
sg22
I58335
sg51
g52
sg28
I1
sg27
I59049
sg54
I0
sg15
I1780
sg89
g90
sg57
g67
sS'RecMemTask.thisTrialN'
p243
I9
sg55
g56
sg70
I1
sg152
VStimuli/12F_HO.bmp
p244
sg71
I1
sg72
g73
sg19
I2000
sg78
g79
sg20
I56554
sg53
g11
sS'RecMemTask.thisRepN'
p245
I0
sg82
I01
sg85
g81
sg83
g84
sg18
I58549
sg87
g88
sg24
I58549
sg25
I500
sg26
I59049
sg94
g95
sg40
I0
sg155
g168
sg80
g81
sg96
I1
sa(dp246
g17
I59054
sg141
g208
sg16
g168
sg32
g33
sg34
I1
sS'RecMemTask.thisN'
p247
I10
sg46
g47
sg35
g36
sg37
g38
sg39
I0
sg23
I61049
sg41
I1
sg42
g43
sg44
g45
sS'RecMemTask.thisIndex'
p248
g58
(g123
S'\n\x00\x00\x00\x00\x00\x00\x00'
p249
tp250
Rp251
sg149
g150
sg14
g116
sg77
I0
sg86
I160
sg21
I61049
sg68
g69
sg48
g49
sg50
I0
sg22
I59817
sg51
g52
sg28
I1
sg27
I61549
sg54
I0
sg15
I761
sg89
g90
sg57
g67
sS'RecMemTask.thisTrialN'
p252
I10
sg55
g56
sg70
I1
sg152
VStimuli/9F_FO.bmp
p253
sg71
I1
sg72
g73
sg19
I2000
sg78
g79
sg20
I59055
sg53
g11
sS'RecMemTask.thisRepN'
p254
I0
sg82
I01
sg85
g81
sg83
g84
sg18
I61049
sg87
g88
sg24
I61049
sg25
I500
sg26
I61549
sg94
g95
sg40
I0
sg155
g168
sg80
g81
sg96
I1
sa(dp255
g17
I61554
sg141
g157
sg16
g143
sg32
g33
sg34
I1
sS'RecMemTask.thisN'
p256
I11
sg46
g47
sg35
g36
sg37
g38
sg39
I0
sg23
I63549
sg41
I1
sg42
g43
sg44
g45
sS'RecMemTask.thisIndex'
p257
g58
(g123
S'\x0b\x00\x00\x00\x00\x00\x00\x00'
p258
tp259
Rp260
sg149
g150
sg14
g116
sg77
I0
sg86
I160
sg21
I63549
sg68
g69
sg48
g49
sg50
I0
sg22
I61851
sg51
g52
sg28
I0
sg27
I64050
sg54
I0
sg15
I296
sg89
g90
sg57
g67
sS'RecMemTask.thisTrialN'
p261
I11
sg55
g56
sg70
I1
sg152
VStimuli/PL_058_TUFTS07BW.bmp
p262
sg71
I1
sg72
g73
sg19
I2000
sg78
g79
sg20
I61555
sg53
g11
sS'RecMemTask.thisRepN'
p263
I0
sg82
I01
sg85
g81
sg83
g84
sg18
I63549
sg87
g88
sg24
I63549
sg25
I500
sg26
I64050
sg94
g95
sg40
I0
sg155
g143
sg80
g81
sg96
I1
sa(dp264
g17
I64055
sg141
g237
sg16
g168
sg32
g33
sg34
I1
sS'RecMemTask.thisN'
p265
I12
sg46
g47
sg35
g36
sg37
g38
sg39
I0
sg23
I66049
sg41
I1
sg42
g43
sg44
g45
sS'RecMemTask.thisIndex'
p266
g58
(g123
S'\x0c\x00\x00\x00\x00\x00\x00\x00'
p267
tp268
Rp269
sg149
g150
sg14
g116
sg77
I0
sg86
I160
sg21
I66050
sg68
g69
sg48
g49
sg50
I0
sg22
I64268
sg51
g52
sg28
I1
sg27
I66550
sg54
I0
sg15
I212
sg89
g90
sg57
g67
sS'RecMemTask.thisTrialN'
p270
I12
sg55
g56
sg70
I1
sg152
VStimuli/34M_HO.bmp
p271
sg71
I1
sg72
g73
sg19
I2000
sg78
g79
sg20
I64056
sg53
g11
sS'RecMemTask.thisRepN'
p272
I0
sg82
I01
sg85
g81
sg83
g84
sg18
I66050
sg87
g88
sg24
I66050
sg25
I500
sg26
I66550
sg94
g95
sg40
I0
sg155
g168
sg80
g81
sg96
I1
sa(dp273
g17
I66556
sg141
g218
sg16
g143
sg32
g33
sg34
I1
sS'RecMemTask.thisN'
p274
I13
sg46
g47
sg35
g36
sg37
g38
sg39
I0
sg23
I68550
sg41
I1
sg42
g43
sg44
g45
sS'RecMemTask.thisIndex'
p275
g58
(g123
S'\r\x00\x00\x00\x00\x00\x00\x00'
p276
tp277
Rp278
sg149
g150
sg14
g116
sg77
I0
sg86
I160
sg21
I68551
sg68
g69
sg48
g49
sg50
I0
sg22
I66869
sg51
g52
sg28
I0
sg27
I69049
sg54
I0
sg15
I312
sg89
g90
sg57
g67
sS'RecMemTask.thisTrialN'
p279
I13
sg55
g56
sg70
I1
sg152
VStimuli/WM033_FO.bmp
p280
sg71
I1
sg72
g73
sg19
I2000
sg78
g79
sg20
I66556
sg53
g11
sS'RecMemTask.thisRepN'
p281
I0
sg82
I01
sg85
g81
sg83
g84
sg18
I68551
sg87
g88
sg24
I68551
sg25
I500
sg26
I69049
sg94
g95
sg40
I0
sg155
g143
sg80
g81
sg96
I1
sa(dp282
g17
I69055
sg141
g189
sg16
g143
sg32
g33
sg34
I1
sS'RecMemTask.thisN'
p283
I14
sg46
g47
sg35
g36
sg37
g38
sg39
I0
sg23
I71051
sg41
I1
sg42
g43
sg44
g45
sS'RecMemTask.thisIndex'
p284
g58
(g123
S'\x0e\x00\x00\x00\x00\x00\x00\x00'
p285
tp286
Rp287
sg149
g150
sg14
g116
sg77
I0
sg86
I160
sg21
I71051
sg68
g69
sg48
g49
sg50
I0
sg22
I69485
sg51
g52
sg28
I0
sg27
I71551
sg54
I0
sg15
I429
sg89
g90
sg57
g67
sS'RecMemTask.thisTrialN'
p288
I14
sg55
g56
sg70
I1
sg152
VStimuli/BF005_HO.bmp
p289
sg71
I1
sg72
g73
sg19
I2000
sg78
g79
sg20
I69055
sg53
g11
sS'RecMemTask.thisRepN'
p290
I0
sg82
I01
sg85
g81
sg83
g84
sg18
I71051
sg87
g88
sg24
I71051
sg25
I500
sg26
I71551
sg94
g95
sg40
I0
sg155
g143
sg80
g81
sg96
I1
sa(dp291
g17
I71556
sg141
g142
sg16
g143
sg32
g33
sg34
I1
sS'RecMemTask.thisN'
p292
I15
sg46
g47
sg35
g36
sg37
g38
sg39
I0
sg23
I73551
sg41
I1
sg42
g43
sg44
g45
sS'RecMemTask.thisIndex'
p293
g58
(g123
S'\x0f\x00\x00\x00\x00\x00\x00\x00'
p294
tp295
Rp296
sg149
g150
sg14
g47
sg77
I0
sg86
I160
sg21
I73551
sg68
g69
sg48
g49
sg50
I0
sg22
I0
sg51
g52
sg28
I0
sg27
I74051
sg54
I0
sg15
I0
sg89
g90
sg57
g67
sS'RecMemTask.thisTrialN'
p297
I15
sg55
g56
sg70
I1
sg152
VStimuli/LM216_NC.bmp
p298
sg71
I1
sg72
g73
sg19
I2000
sg78
g79
sg20
I71557
sg53
g11
sS'RecMemTask.thisRepN'
p299
I0
sg82
I01
sg85
g81
sg83
g84
sg18
I73551
sg87
g88
sg24
I73551
sg25
I500
sg26
I74051
sg94
g95
sg40
I0
sg155
g143
sg80
g81
sg96
I1
sa(dp300
g17
I74055
sg141
g142
sg16
g143
sg32
g33
sg34
I1
sS'RecMemTask.thisN'
p301
I16
sg46
g47
sg35
g36
sg37
g38
sg39
I0
sg23
I76051
sg41
I1
sg42
g43
sg44
g45
sS'RecMemTask.thisIndex'
p302
g58
(g123
S'\x10\x00\x00\x00\x00\x00\x00\x00'
p303
tp304
Rp305
sg149
g150
sg14
g116
sg77
I0
sg86
I160
sg21
I76051
sg68
g69
sg48
g49
sg50
I0
sg22
I74319
sg51
g52
sg28
I0
sg27
I76552
sg54
I0
sg15
I263
sg89
g90
sg57
g67
sS'RecMemTask.thisTrialN'
p306
I16
sg55
g56
sg70
I1
sg152
VStimuli/WF01_NC.bmp
p307
sg71
I1
sg72
g73
sg19
I2000
sg78
g79
sg20
I74056
sg53
g11
sS'RecMemTask.thisRepN'
p308
I0
sg82
I01
sg85
g81
sg83
g84
sg18
I76051
sg87
g88
sg24
I76051
sg25
I500
sg26
I76552
sg94
g95
sg40
I0
sg155
g143
sg80
g81
sg96
I1
sa(dp309
g17
I76557
sg141
g157
sg16
g143
sg32
g33
sg34
I1
sS'RecMemTask.thisN'
p310
I17
sg46
g47
sg35
g36
sg37
g38
sg39
I0
sg23
I78551
sg41
I1
sg42
g43
sg44
g45
sS'RecMemTask.thisIndex'
p311
g58
(g123
S'\x11\x00\x00\x00\x00\x00\x00\x00'
p312
tp313
Rp314
sg149
g150
sg14
g116
sg77
I0
sg86
I160
sg21
I78551
sg68
g69
sg48
g49
sg50
I0
sg22
I77170
sg51
g52
sg28
I0
sg27
I79051
sg54
I0
sg15
I611
sg89
g90
sg57
g67
sS'RecMemTask.thisTrialN'
p315
I17
sg55
g56
sg70
I1
sg152
VStimuli/PL_060_TUFTS10BW.bmp
p316
sg71
I1
sg72
g73
sg19
I2000
sg78
g79
sg20
I76557
sg53
g11
sS'RecMemTask.thisRepN'
p317
I0
sg82
I01
sg85
g81
sg83
g84
sg18
I78551
sg87
g88
sg24
I78551
sg25
I500
sg26
I79051
sg94
g95
sg40
I0
sg155
g143
sg80
g81
sg96
I1
sa(dp318
g17
I79056
sg141
g178
sg16
g168
sg32
g33
sg34
I1
sS'RecMemTask.thisN'
p319
I18
sg46
g47
sg35
g36
sg37
g38
sg39
I0
sg23
I81051
sg41
I1
sg42
g43
sg44
g45
sS'RecMemTask.thisIndex'
p320
g58
(g123
S'\x12\x00\x00\x00\x00\x00\x00\x00'
p321
tp322
Rp323
sg149
g150
sg14
g116
sg77
I0
sg86
I160
sg21
I81052
sg68
g69
sg48
g49
sg50
I0
sg22
I79403
sg51
g52
sg28
I1
sg27
I81552
sg54
I0
sg15
I346
sg89
g90
sg57
g67
sS'RecMemTask.thisTrialN'
p324
I18
sg55
g56
sg70
I1
sg152
VStimuli/PL_010_92038.bmp
p325
sg71
I1
sg72
g73
sg19
I2000
sg78
g79
sg20
I79057
sg53
g11
sS'RecMemTask.thisRepN'
p326
I0
sg82
I01
sg85
g81
sg83
g84
sg18
I81052
sg87
g88
sg24
I81052
sg25
I500
sg26
I81552
sg94
g95
sg40
I0
sg155
g168
sg80
g81
sg96
I1
sa(dp327
g17
I81561
sg141
g189
sg16
g143
sg32
g33
sg34
I1
sS'RecMemTask.thisN'
p328
I19
sg46
g47
sg35
g36
sg37
g38
sg39
I0
sg23
I83552
sg41
I1
sg42
g43
sg44
g45
sS'RecMemTask.thisIndex'
p329
g58
(g123
S'\x13\x00\x00\x00\x00\x00\x00\x00'
p330
tp331
Rp332
sg149
g150
sg14
g116
sg77
I0
sg86
I160
sg21
I83552
sg68
g69
sg48
g49
sg50
I0
sg22
I82587
sg51
g52
sg28
I0
sg27
I84052
sg54
I0
sg15
I1025
sg89
g90
sg57
g67
sS'RecMemTask.thisTrialN'
p333
I19
sg55
g56
sg70
I1
sg152
VStimuli/BM002_HO.bmp
p334
sg71
I1
sg72
g73
sg19
I2000
sg78
g79
sg20
I81561
sg53
g11
sS'RecMemTask.thisRepN'
p335
I0
sg82
I01
sg85
g81
sg83
g84
sg18
I83552
sg87
g88
sg24
I83552
sg25
I500
sg26
I84052
sg94
g95
sg40
I0
sg155
g143
sg80
g81
sg96
I1
sa(dp336
g17
I84061
sg141
g218
sg16
g143
sg32
g33
sg34
I1
sS'RecMemTask.thisN'
p337
I20
sg46
g47
sg35
g36
sg37
g38
sg39
I0
sg23
I86052
sg41
I1
sg42
g43
sg44
g45
sS'RecMemTask.thisIndex'
p338
g58
(g123
S'\x14\x00\x00\x00\x00\x00\x00\x00'
p339
tp340
Rp341
sg149
g150
sg14
g116
sg77
I0
sg86
I160
sg21
I86052
sg68
g69
sg48
g49
sg50
I0
sg22
I84470
sg51
g52
sg28
I0
sg27
I86552
sg54
I0
sg15
I407
sg89
g90
sg57
g67
sS'RecMemTask.thisTrialN'
p342
I20
sg55
g56
sg70
I1
sg152
VStimuli/OM01_FO.bmp
p343
sg71
I1
sg72
g73
sg19
I2000
sg78
g79
sg20
I84062
sg53
g11
sS'RecMemTask.thisRepN'
p344
I0
sg82
I01
sg85
g81
sg83
g84
sg18
I86052
sg87
g88
sg24
I86052
sg25
I500
sg26
I86552
sg94
g95
sg40
I0
sg155
g143
sg80
g81
sg96
I1
sa(dp345
g17
I86561
sg141
g208
sg16
g168
sg32
g33
sg34
I1
sS'RecMemTask.thisN'
p346
I21
sg46
g47
sg35
g36
sg37
g38
sg39
I0
sg23
I88552
sg41
I1
sg42
g43
sg44
g45
sS'RecMemTask.thisIndex'
p347
g58
(g123
S'\x15\x00\x00\x00\x00\x00\x00\x00'
p348
tp349
Rp350
sg149
g150
sg14
g116
sg77
I0
sg86
I160
sg21
I88552
sg68
g69
sg48
g49
sg50
I0
sg22
I86838
sg51
g52
sg28
I1
sg27
I89052
sg54
I0
sg15
I276
sg89
g90
sg57
g67
sS'RecMemTask.thisTrialN'
p351
I21
sg55
g56
sg70
I1
sg152
VStimuli/39M_FO.bmp
p352
sg71
I1
sg72
g73
sg19
I2000
sg78
g79
sg20
I86561
sg53
g11
sS'RecMemTask.thisRepN'
p353
I0
sg82
I01
sg85
g81
sg83
g84
sg18
I88552
sg87
g88
sg24
I88552
sg25
I500
sg26
I89052
sg94
g95
sg40
I0
sg155
g168
sg80
g81
sg96
I1
sa(dp354
g17
I89061
sg141
g208
sg16
g168
sg32
g33
sg34
I1
sS'RecMemTask.thisN'
p355
I22
sg46
g47
sg35
g36
sg37
g38
sg39
I0
sg23
I91053
sg41
I1
sg42
g43
sg44
g45
sS'RecMemTask.thisIndex'
p356
g58
(g123
S'\x16\x00\x00\x00\x00\x00\x00\x00'
p357
tp358
Rp359
sg149
g150
sg14
g116
sg77
I0
sg86
I160
sg21
I91053
sg68
g69
sg48
g49
sg50
I0
sg22
I89403
sg51
g52
sg28
I1
sg27
I91553
sg54
I0
sg15
I327
sg89
g90
sg57
g67
sS'RecMemTask.thisTrialN'
p360
I22
sg55
g56
sg70
I1
sg152
VStimuli/BM045_FO.bmp
p361
sg71
I1
sg72
g73
sg19
I2000
sg78
g79
sg20
I89062
sg53
g11
sS'RecMemTask.thisRepN'
p362
I0
sg82
I01
sg85
g81
sg83
g84
sg18
I91053
sg87
g88
sg24
I91053
sg25
I500
sg26
I91553
sg94
g95
sg40
I0
sg155
g168
sg80
g81
sg96
I1
sa(dp363
g17
I91562
sg141
g237
sg16
g168
sg32
g33
sg34
I1
sS'RecMemTask.thisN'
p364
I23
sg46
g47
sg35
g36
sg37
g38
sg39
I0
sg23
I93554
sg41
I1
sg42
g43
sg44
g45
sS'RecMemTask.thisIndex'
p365
g58
(g123
S'\x17\x00\x00\x00\x00\x00\x00\x00'
p366
tp367
Rp368
sg149
g150
sg14
g116
sg77
I0
sg86
I160
sg21
I93554
sg68
g69
sg48
g49
sg50
I0
sg22
I91873
sg51
g52
sg28
I1
sg27
I94053
sg54
I0
sg15
I310
sg89
g90
sg57
g67
sS'RecMemTask.thisTrialN'
p369
I23
sg55
g56
sg70
I1
sg152
VStimuli/BF037_HO.bmp
p370
sg71
I1
sg72
g73
sg19
I2000
sg78
g79
sg20
I91562
sg53
g11
sS'RecMemTask.thisRepN'
p371
I0
sg82
I01
sg85
g81
sg83
g84
sg18
I93554
sg87
g88
sg24
I93554
sg25
I500
sg26
I94053
sg94
g95
sg40
I0
sg155
g168
sg80
g81
sg96
I1
sa(dp372
g17
I94062
sg141
g142
sg16
g143
sg32
g33
sg34
I1
sS'RecMemTask.thisN'
p373
I24
sg46
g47
sg35
g36
sg37
g38
sg39
I0
sg23
I96053
sg41
I1
sg42
g43
sg44
g45
sS'RecMemTask.thisIndex'
p374
g58
(g123
S'\x18\x00\x00\x00\x00\x00\x00\x00'
p375
tp376
Rp377
sg149
g150
sg14
g116
sg77
I0
sg86
I160
sg21
I96053
sg68
g69
sg48
g49
sg50
I0
sg22
I94406
sg51
g52
sg28
I0
sg27
I96554
sg54
I0
sg15
I343
sg89
g90
sg57
g67
sS'RecMemTask.thisTrialN'
p378
I24
sg55
g56
sg70
I1
sg152
VStimuli/AM245_NC.bmp
p379
sg71
I1
sg72
g73
sg19
I2000
sg78
g79
sg20
I94062
sg53
g11
sS'RecMemTask.thisRepN'
p380
I0
sg82
I01
sg85
g81
sg83
g84
sg18
I96053
sg87
g88
sg24
I96053
sg25
I500
sg26
I96554
sg94
g95
sg40
I0
sg155
g143
sg80
g81
sg96
I1
sa(dp381
g17
I96564
sg141
g167
sg16
g168
sg32
g33
sg34
I1
sS'RecMemTask.thisN'
p382
I25
sg46
g47
sg35
g36
sg37
g38
sg39
I0
sg23
I98554
sg41
I1
sg42
g43
sg44
g45
sS'RecMemTask.thisIndex'
p383
g58
(g123
S'\x19\x00\x00\x00\x00\x00\x00\x00'
p384
tp385
Rp386
sg149
g150
sg14
g116
sg77
I0
sg86
I160
sg21
I98554
sg68
g69
sg48
g49
sg50
I0
sg22
I97006
sg51
g52
sg28
I1
sg27
I99055
sg54
I0
sg15
I441
sg89
g90
sg57
g67
sS'RecMemTask.thisTrialN'
p387
I25
sg55
g56
sg70
I1
sg152
VStimuli/AF218_NC.bmp
p388
sg71
I1
sg72
g73
sg19
I2000
sg78
g79
sg20
I96564
sg53
g11
sS'RecMemTask.thisRepN'
p389
I0
sg82
I01
sg85
g81
sg83
g84
sg18
I98554
sg87
g88
sg24
I98554
sg25
I500
sg26
I99054
sg94
g95
sg40
I0
sg155
g168
sg80
g81
sg96
I1
sa(dp390
g17
I99064
sg141
g218
sg16
g143
sg32
g33
sg34
I1
sS'RecMemTask.thisN'
p391
I26
sg46
g47
sg35
g36
sg37
g38
sg39
I0
sg23
I101053
sg41
I1
sg42
g43
sg44
g45
sS'RecMemTask.thisIndex'
p392
g58
(g123
S'\x1a\x00\x00\x00\x00\x00\x00\x00'
p393
tp394
Rp395
sg149
g150
sg14
g116
sg77
I0
sg86
I160
sg21
I101054
sg68
g69
sg48
g49
sg50
I0
sg22
I99424
sg51
g52
sg28
I0
sg27
I101554
sg54
I0
sg15
I358
sg89
g90
sg57
g67
sS'RecMemTask.thisTrialN'
p396
I26
sg55
g56
sg70
I1
sg152
VStimuli/AF03_FO.bmp
p397
sg71
I1
sg72
g73
sg19
I2000
sg78
g79
sg20
I99065
sg53
g11
sS'RecMemTask.thisRepN'
p398
I0
sg82
I01
sg85
g81
sg83
g84
sg18
I101054
sg87
g88
sg24
I101054
sg25
I500
sg26
I101554
sg94
g95
sg40
I0
sg155
g143
sg80
g81
sg96
I1
sa(dp399
g17
I101564
sg141
g157
sg16
g143
sg32
g33
sg34
I1
sS'RecMemTask.thisN'
p400
I27
sg46
g47
sg35
g36
sg37
g38
sg39
I0
sg23
I103554
sg41
I1
sg42
g43
sg44
g45
sS'RecMemTask.thisIndex'
p401
g58
(g123
S'\x1b\x00\x00\x00\x00\x00\x00\x00'
p402
tp403
Rp404
sg149
g150
sg14
g116
sg77
I0
sg86
I160
sg21
I103555
sg68
g69
sg48
g49
sg50
I0
sg22
I102007
sg51
g52
sg28
I0
sg27
I104054
sg54
I0
sg15
I442
sg89
g90
sg57
g67
sS'RecMemTask.thisTrialN'
p405
I27
sg55
g56
sg70
I1
sg152
VStimuli/PL_061_TUFTS11BW.bmp
p406
sg71
I1
sg72
g73
sg19
I2000
sg78
g79
sg20
I101564
sg53
g11
sS'RecMemTask.thisRepN'
p407
I0
sg82
I01
sg85
g81
sg83
g84
sg18
I103555
sg87
g88
sg24
I103555
sg25
I500
sg26
I104054
sg94
g95
sg40
I0
sg155
g143
sg80
g81
sg96
I1
sa(dp408
g17
I104063
sg141
g178
sg16
g168
sg32
g33
sg34
I1
sS'RecMemTask.thisN'
p409
I28
sg46
g47
sg35
g36
sg37
g38
sg39
I0
sg23
I106054
sg41
I1
sg42
g43
sg44
g45
sS'RecMemTask.thisIndex'
p410
g58
(g123
S'\x1c\x00\x00\x00\x00\x00\x00\x00'
p411
tp412
Rp413
sg149
g150
sg14
g116
sg77
I0
sg86
I160
sg21
I106054
sg68
g69
sg48
g49
sg50
I0
sg22
I104504
sg51
g52
sg28
I1
sg27
I106554
sg54
I0
sg15
I428
sg89
g90
sg57
g67
sS'RecMemTask.thisTrialN'
p414
I28
sg55
g56
sg70
I1
sg152
VStimuli/PL_003_92016.bmp
p415
sg71
I1
sg72
g73
sg19
I2000
sg78
g79
sg20
I104063
sg53
g11
sS'RecMemTask.thisRepN'
p416
I0
sg82
I01
sg85
g81
sg83
g84
sg18
I106054
sg87
g88
sg24
I106054
sg25
I500
sg26
I106554
sg94
g95
sg40
I0
sg155
g168
sg80
g81
sg96
I1
sa(dp417
g17
I106563
sg141
g189
sg16
g143
sg32
g33
sg34
I1
sS'RecMemTask.thisN'
p418
I29
sg46
g47
sg35
g36
sg37
g38
sg39
I0
sg23
I108556
sg41
I1
sg42
g43
sg44
g45
sS'RecMemTask.thisIndex'
p419
g58
(g123
S'\x1d\x00\x00\x00\x00\x00\x00\x00'
p420
tp421
Rp422
sg149
g150
sg14
g116
sg77
I0
sg86
I160
sg21
I108556
sg68
g69
sg48
g49
sg50
I0
sg22
I106906
sg51
g52
sg28
I0
sg27
I109055
sg54
I0
sg15
I328
sg89
g90
sg57
g67
sS'RecMemTask.thisTrialN'
p423
I29
sg55
g56
sg70
I1
sg152
VStimuli/HF03_HO.bmp
p424
sg71
I1
sg72
g73
sg19
I2000
sg78
g79
sg20
I106563
sg53
g11
sS'RecMemTask.thisRepN'
p425
I0
sg82
I01
sg85
g81
sg83
g84
sg18
I108556
sg87
g88
sg24
I108556
sg25
I500
sg26
I109055
sg94
g95
sg40
I0
sg155
g143
sg80
g81
sg96
I1
sa(dp426
g17
I109064
sg141
g167
sg16
g168
sg32
g33
sg34
I1
sS'RecMemTask.thisN'
p427
I30
sg46
g47
sg35
g36
sg37
g38
sg39
I0
sg23
I111056
sg41
I1
sg42
g43
sg44
g45
sS'RecMemTask.thisIndex'
p428
g58
(g123
S'\x1e\x00\x00\x00\x00\x00\x00\x00'
p429
tp430
Rp431
sg149
g150
sg14
g116
sg77
I0
sg86
I160
sg21
I111056
sg68
g69
sg48
g49
sg50
I0
sg22
I109341
sg51
g52
sg28
I1
sg27
I111556
sg54
I0
sg15
I275
sg89
g90
sg57
g67
sS'RecMemTask.thisTrialN'
p432
I30
sg55
g56
sg70
I1
sg152
VStimuli/42M_NC.bmp
p433
sg71
I1
sg72
g73
sg19
I2000
sg78
g79
sg20
I109065
sg53
g11
sS'RecMemTask.thisRepN'
p434
I0
sg82
I01
sg85
g81
sg83
g84
sg18
I111056
sg87
g88
sg24
I111056
sg25
I500
sg26
I111556
sg94
g95
sg40
I0
sg155
g168
sg80
g81
sg96
I1
sa(dp435
g17
I111566
sg141
g237
sg16
g168
sg32
g33
sg34
I1
sS'RecMemTask.thisN'
p436
I31
sg46
g47
sg35
g36
sg37
g38
sg39
I0
sg23
I113556
sg41
I1
sg42
g43
sg44
g45
sS'RecMemTask.thisIndex'
p437
g58
(g123
S'\x1f\x00\x00\x00\x00\x00\x00\x00'
p438
tp439
Rp440
sg149
g150
sg14
g116
sg77
I0
sg86
I160
sg21
I113556
sg68
g69
sg48
g49
sg50
I0
sg22
I111824
sg51
g52
sg28
I1
sg27
I114056
sg54
I0
sg15
I257
sg89
g90
sg57
g67
sS'RecMemTask.thisTrialN'
p441
I31
sg55
g56
sg70
I1
sg152
VStimuli/WM011_HO.bmp
p442
sg71
I1
sg72
g73
sg19
I2000
sg78
g79
sg20
I111566
sg53
g11
sS'RecMemTask.thisRepN'
p443
I0
sg82
I01
sg85
g81
sg83
g84
sg18
I113556
sg87
g88
sg24
I113556
sg25
I500
sg26
I114056
sg94
g95
sg40
I0
sg155
g168
sg80
g81
sg96
I1
sa(dp444
g17
I114065
sg141
g178
sg16
g168
sg32
g33
sg34
I1
sS'RecMemTask.thisN'
p445
I32
sg46
g47
sg35
g36
sg37
g38
sg39
I0
sg23
I116056
sg41
I1
sg42
g43
sg44
g45
sS'RecMemTask.thisIndex'
p446
g58
(g123
S' \x00\x00\x00\x00\x00\x00\x00'
p447
tp448
Rp449
sg149
g150
sg14
g116
sg77
I0
sg86
I160
sg21
I116056
sg68
g69
sg48
g49
sg50
I0
sg22
I114458
sg51
g52
sg28
I1
sg27
I116556
sg54
I0
sg15
I392
sg89
g90
sg57
g67
sS'RecMemTask.thisTrialN'
p450
I32
sg55
g56
sg70
I1
sg152
VStimuli/PL_006_92025.bmp
p451
sg71
I1
sg72
g73
sg19
I2000
sg78
g79
sg20
I114065
sg53
g11
sS'RecMemTask.thisRepN'
p452
I0
sg82
I01
sg85
g81
sg83
g84
sg18
I116056
sg87
g88
sg24
I116056
sg25
I500
sg26
I116556
sg94
g95
sg40
I0
sg155
g168
sg80
g81
sg96
I1
sa(dp453
g17
I116565
sg141
g208
sg16
g168
sg32
g33
sg34
I1
sS'RecMemTask.thisN'
p454
I33
sg46
g47
sg35
g36
sg37
g38
sg39
I0
sg23
I118557
sg41
I1
sg42
g43
sg44
g45
sS'RecMemTask.thisIndex'
p455
g58
(g123
S'!\x00\x00\x00\x00\x00\x00\x00'
p456
tp457
Rp458
sg149
g150
sg14
g116
sg77
I0
sg86
I160
sg21
I118557
sg68
g69
sg48
g49
sg50
I0
sg22
I116858
sg51
g52
sg28
I1
sg27
I119056
sg54
I0
sg15
I291
sg89
g90
sg57
g67
sS'RecMemTask.thisTrialN'
p459
I33
sg55
g56
sg70
I1
sg152
VStimuli/BF003_FO.bmp
p460
sg71
I1
sg72
g73
sg19
I2000
sg78
g79
sg20
I116565
sg53
g11
sS'RecMemTask.thisRepN'
p461
I0
sg82
I01
sg85
g81
sg83
g84
sg18
I118557
sg87
g88
sg24
I118557
sg25
I500
sg26
I119056
sg94
g95
sg40
I0
sg155
g168
sg80
g81
sg96
I1
sa(dp462
g17
I119065
sg141
g142
sg16
g143
sg32
g33
sg34
I1
sS'RecMemTask.thisN'
p463
I34
sg46
g47
sg35
g36
sg37
g38
sg39
I0
sg23
I121057
sg41
I1
sg42
g43
sg44
g45
sS'RecMemTask.thisIndex'
p464
g58
(g123
S'"\x00\x00\x00\x00\x00\x00\x00'
p465
tp466
Rp467
sg149
g150
sg14
g116
sg77
I0
sg86
I160
sg21
I121057
sg68
g69
sg48
g49
sg50
I0
sg22
I119377
sg51
g52
sg28
I0
sg27
I121557
sg54
I0
sg15
I310
sg89
g90
sg57
g67
sS'RecMemTask.thisTrialN'
p468
I34
sg55
g56
sg70
I1
sg152
VStimuli/21M_NC.bmp
p469
sg71
I1
sg72
g73
sg19
I2000
sg78
g79
sg20
I119065
sg53
g11
sS'RecMemTask.thisRepN'
p470
I0
sg82
I01
sg85
g81
sg83
g84
sg18
I121057
sg87
g88
sg24
I121057
sg25
I500
sg26
I121557
sg94
g95
sg40
I0
sg155
g143
sg80
g81
sg96
I1
sa(dp471
g17
I121566
sg141
g157
sg16
g143
sg32
g33
sg34
I1
sS'RecMemTask.thisN'
p472
I35
sg46
g47
sg35
g36
sg37
g38
sg39
I0
sg23
I123557
sg41
I1
sg42
g43
sg44
g45
sS'RecMemTask.thisIndex'
p473
g58
(g123
S'#\x00\x00\x00\x00\x00\x00\x00'
p474
tp475
Rp476
sg149
g150
sg14
g116
sg77
I0
sg86
I160
sg21
I123557
sg68
g69
sg48
g49
sg50
I0
sg22
I122010
sg51
g52
sg28
I0
sg27
I124057
sg54
I0
sg15
I443
sg89
g90
sg57
g67
sS'RecMemTask.thisTrialN'
p477
I35
sg55
g56
sg70
I1
sg152
VStimuli/PL_051_SCENE08.bmp
p478
sg71
I1
sg72
g73
sg19
I2000
sg78
g79
sg20
I121566
sg53
g11
sS'RecMemTask.thisRepN'
p479
I0
sg82
I01
sg85
g81
sg83
g84
sg18
I123557
sg87
g88
sg24
I123557
sg25
I500
sg26
I124057
sg94
g95
sg40
I0
sg155
g143
sg80
g81
sg96
I1
sa(dp480
g17
I124065
sg141
g218
sg16
g143
sg32
g33
sg34
I1
sS'RecMemTask.thisN'
p481
I36
sg46
g47
sg35
g36
sg37
g38
sg39
I0
sg23
I126057
sg41
I1
sg42
g43
sg44
g45
sS'RecMemTask.thisIndex'
p482
g58
(g123
S'$\x00\x00\x00\x00\x00\x00\x00'
p483
tp484
Rp485
sg149
g150
sg14
g116
sg77
I0
sg86
I160
sg21
I126057
sg68
g69
sg48
g49
sg50
I0
sg22
I124410
sg51
g52
sg28
I0
sg27
I126557
sg54
I0
sg15
I344
sg89
g90
sg57
g67
sS'RecMemTask.thisTrialN'
p486
I36
sg55
g56
sg70
I1
sg152
VStimuli/37M_FO.bmp
p487
sg71
I1
sg72
g73
sg19
I2000
sg78
g79
sg20
I124066
sg53
g11
sS'RecMemTask.thisRepN'
p488
I0
sg82
I01
sg85
g81
sg83
g84
sg18
I126057
sg87
g88
sg24
I126057
sg25
I500
sg26
I126557
sg94
g95
sg40
I0
sg155
g143
sg80
g81
sg96
I1
sa(dp489
g17
I126565
sg141
g208
sg16
g168
sg32
g33
sg34
I1
sS'RecMemTask.thisN'
p490
I37
sg46
g47
sg35
g36
sg37
g38
sg39
I0
sg23
I128558
sg41
I1
sg42
g43
sg44
g45
sS'RecMemTask.thisIndex'
p491
g58
(g123
S'%\x00\x00\x00\x00\x00\x00\x00'
p492
tp493
Rp494
sg149
g150
sg14
g116
sg77
I0
sg86
I160
sg21
I128558
sg68
g69
sg48
g49
sg50
I0
sg22
I126960
sg51
g52
sg28
I1
sg27
I129042
sg54
I0
sg15
I393
sg89
g90
sg57
g67
sS'RecMemTask.thisTrialN'
p495
I37
sg55
g56
sg70
I1
sg152
VStimuli/10F_FO.bmp
p496
sg71
I1
sg72
g73
sg19
I2000
sg78
g79
sg20
I126566
sg53
g11
sS'RecMemTask.thisRepN'
p497
I0
sg82
I01
sg85
g81
sg83
g84
sg18
I128558
sg87
g88
sg24
I128558
sg25
I500
sg26
I129042
sg94
g95
sg40
I0
sg155
g168
sg80
g81
sg96
I1
sa(dp498
g17
I129050
sg141
g237
sg16
g168
sg32
g33
sg34
I1
sS'RecMemTask.thisN'
p499
I38
sg46
g47
sg35
g36
sg37
g38
sg39
I0
sg23
I131059
sg41
I1
sg42
g43
sg44
g45
sS'RecMemTask.thisIndex'
p500
g58
(g123
S'&\x00\x00\x00\x00\x00\x00\x00'
p501
tp502
Rp503
sg149
g150
sg14
g116
sg77
I0
sg86
I160
sg21
I131059
sg68
g69
sg48
g49
sg50
I0
sg22
I129795
sg51
g52
sg28
I1
sg27
I131541
sg54
I0
sg15
I743
sg89
g90
sg57
g67
sS'RecMemTask.thisTrialN'
p504
I38
sg55
g56
sg70
I1
sg152
VStimuli/BF002_HO.bmp
p505
sg71
I1
sg72
g73
sg19
I2000
sg78
g79
sg20
I129050
sg53
g11
sS'RecMemTask.thisRepN'
p506
I0
sg82
I01
sg85
g81
sg83
g84
sg18
I131059
sg87
g88
sg24
I131059
sg25
I500
sg26
I131541
sg94
g95
sg40
I0
sg155
g168
sg80
g81
sg96
I1
sa(dp507
g17
I131549
sg141
g157
sg16
g143
sg32
g33
sg34
I1
sS'RecMemTask.thisN'
p508
I39
sg46
g47
sg35
g36
sg37
g38
sg39
I0
sg23
I133542
sg41
I1
sg42
g43
sg44
g45
sS'RecMemTask.thisIndex'
p509
g58
(g123
S"'\x00\x00\x00\x00\x00\x00\x00"
p510
tp511
Rp512
sg149
g150
sg14
g116
sg77
I0
sg86
I160
sg21
I133542
sg68
g69
sg48
g49
sg50
I0
sg22
I132094
sg51
g52
sg28
I0
sg27
I134042
sg54
I0
sg15
I543
sg89
g90
sg57
g67
sS'RecMemTask.thisTrialN'
p513
I39
sg55
g56
sg70
I1
sg152
VStimuli/PL_053_SCENE15.bmp
p514
sg71
I1
sg72
g73
sg19
I2000
sg78
g79
sg20
I131550
sg53
g11
sS'RecMemTask.thisRepN'
p515
I0
sg82
I01
sg85
g81
sg83
g84
sg18
I133542
sg87
g88
sg24
I133542
sg25
I500
sg26
I134042
sg94
g95
sg40
I0
sg155
g143
sg80
g81
sg96
I1
sa(dp516
g17
I134052
sg141
g189
sg16
g143
sg32
g33
sg34
I1
sS'RecMemTask.thisN'
p517
I40
sg46
g47
sg35
g36
sg37
g38
sg39
I0
sg23
I136042
sg41
I1
sg42
g43
sg44
g45
sS'RecMemTask.thisIndex'
p518
g58
(g123
S'(\x00\x00\x00\x00\x00\x00\x00'
p519
tp520
Rp521
sg149
g150
sg14
g116
sg77
I0
sg86
I160
sg21
I136042
sg68
g69
sg48
g49
sg50
I0
sg22
I134378
sg51
g52
sg28
I0
sg27
I136543
sg54
I0
sg15
I325
sg89
g90
sg57
g67
sS'RecMemTask.thisTrialN'
p522
I40
sg55
g56
sg70
I1
sg152
VStimuli/18F_HO.bmp
p523
sg71
I1
sg72
g73
sg19
I2000
sg78
g79
sg20
I134052
sg53
g11
sS'RecMemTask.thisRepN'
p524
I0
sg82
I01
sg85
g81
sg83
g84
sg18
I136042
sg87
g88
sg24
I136042
sg25
I500
sg26
I136543
sg94
g95
sg40
I0
sg155
g143
sg80
g81
sg96
I1
sa(dp525
g17
I136551
sg141
g167
sg16
g168
sg32
g33
sg34
I1
sS'RecMemTask.thisN'
p526
I41
sg46
g47
sg35
g36
sg37
g38
sg39
I0
sg23
I138542
sg41
I1
sg42
g43
sg44
g45
sS'RecMemTask.thisIndex'
p527
g58
(g123
S')\x00\x00\x00\x00\x00\x00\x00'
p528
tp529
Rp530
sg149
g150
sg14
g116
sg77
I0
sg86
I160
sg21
I138543
sg68
g69
sg48
g49
sg50
I0
sg22
I136929
sg51
g52
sg28
I1
sg27
I139042
sg54
I0
sg15
I376
sg89
g90
sg57
g67
sS'RecMemTask.thisTrialN'
p531
I41
sg55
g56
sg70
I1
sg152
VStimuli/7F_NC.bmp
p532
sg71
I1
sg72
g73
sg19
I2000
sg78
g79
sg20
I136551
sg53
g11
sS'RecMemTask.thisRepN'
p533
I0
sg82
I01
sg85
g81
sg83
g84
sg18
I138543
sg87
g88
sg24
I138543
sg25
I500
sg26
I139042
sg94
g95
sg40
I0
sg155
g168
sg80
g81
sg96
I1
sa(dp534
g17
I139047
sg141
g142
sg16
g143
sg32
g33
sg34
I1
sS'RecMemTask.thisN'
p535
I42
sg46
g47
sg35
g36
sg37
g38
sg39
I0
sg23
I141043
sg41
I1
sg42
g43
sg44
g45
sS'RecMemTask.thisIndex'
p536
g58
(g123
S'*\x00\x00\x00\x00\x00\x00\x00'
p537
tp538
Rp539
sg149
g150
sg14
g116
sg77
I0
sg86
I160
sg21
I141043
sg68
g69
sg48
g49
sg50
I0
sg22
I139379
sg51
g52
sg28
I0
sg27
I141544
sg54
I0
sg15
I330
sg89
g90
sg57
g67
sS'RecMemTask.thisTrialN'
p540
I42
sg55
g56
sg70
I1
sg152
g153
sg71
I1
sg72
g73
sg19
I2000
sg78
g79
sg20
I139048
sg53
g11
sS'RecMemTask.thisRepN'
p541
I0
sg82
I01
sg85
g81
sg83
g84
sg18
I141043
sg87
g88
sg24
I141043
sg25
I500
sg26
I141544
sg94
g95
sg40
I0
sg155
g143
sg80
g81
sg96
I1
sa(dp542
g17
I141553
sg141
g167
sg16
g168
sg32
g33
sg34
I1
sS'RecMemTask.thisN'
p543
I43
sg46
g47
sg35
g36
sg37
g38
sg39
I0
sg23
I143543
sg41
I1
sg42
g43
sg44
g45
sS'RecMemTask.thisIndex'
p544
g58
(g123
S'+\x00\x00\x00\x00\x00\x00\x00'
p545
tp546
Rp547
sg149
g150
sg14
g116
sg77
I0
sg86
I160
sg21
I143543
sg68
g69
sg48
g49
sg50
I0
sg22
I141878
sg51
g52
sg28
I1
sg27
I144043
sg54
I0
sg15
I323
sg89
g90
sg57
g67
sS'RecMemTask.thisTrialN'
p548
I43
sg55
g56
sg70
I1
sg152
VStimuli/26M_NC.bmp
p549
sg71
I1
sg72
g73
sg19
I2000
sg78
g79
sg20
I141554
sg53
g11
sS'RecMemTask.thisRepN'
p550
I0
sg82
I01
sg85
g81
sg83
g84
sg18
I143543
sg87
g88
sg24
I143543
sg25
I500
sg26
I144043
sg94
g95
sg40
I0
sg155
g168
sg80
g81
sg96
I1
sa(dp551
g17
I144050
sg141
g178
sg16
g168
sg32
g33
sg34
I1
sS'RecMemTask.thisN'
p552
I44
sg46
g47
sg35
g36
sg37
g38
sg39
I0
sg23
I146043
sg41
I1
sg42
g43
sg44
g45
sS'RecMemTask.thisIndex'
p553
g58
(g123
S',\x00\x00\x00\x00\x00\x00\x00'
p554
tp555
Rp556
sg149
g150
sg14
g116
sg77
I0
sg86
I160
sg21
I146043
sg68
g69
sg48
g49
sg50
I0
sg22
I144529
sg51
g52
sg28
I1
sg27
I146544
sg54
I0
sg15
I477
sg89
g90
sg57
g67
sS'RecMemTask.thisTrialN'
p557
I44
sg55
g56
sg70
I1
sg152
VStimuli/PL_007_92026.bmp
p558
sg71
I1
sg72
g73
sg19
I2000
sg78
g79
sg20
I144051
sg53
g11
sS'RecMemTask.thisRepN'
p559
I0
sg82
I01
sg85
g81
sg83
g84
sg18
I146043
sg87
g88
sg24
I146043
sg25
I500
sg26
I146544
sg94
g95
sg40
I0
sg155
g168
sg80
g81
sg96
I1
sa(dp560
g17
I146554
sg141
g189
sg16
g143
sg32
g33
sg34
I1
sS'RecMemTask.thisN'
p561
I45
sg46
g47
sg35
g36
sg37
g38
sg39
I0
sg23
I148544
sg41
I1
sg42
g43
sg44
g45
sS'RecMemTask.thisIndex'
p562
g58
(g123
S'-\x00\x00\x00\x00\x00\x00\x00'
p563
tp564
Rp565
sg149
g150
sg14
g116
sg77
I0
sg86
I160
sg21
I148544
sg68
g69
sg48
g49
sg50
I0
sg22
I146863
sg51
g52
sg28
I0
sg27
I149043
sg54
I0
sg15
I308
sg89
g90
sg57
g67
sS'RecMemTask.thisTrialN'
p566
I45
sg55
g56
sg70
I1
sg152
VStimuli/HM01_HO.bmp
p567
sg71
I1
sg72
g73
sg19
I2000
sg78
g79
sg20
I146554
sg53
g11
sS'RecMemTask.thisRepN'
p568
I0
sg82
I01
sg85
g81
sg83
g84
sg18
I148544
sg87
g88
sg24
I148544
sg25
I500
sg26
I149043
sg94
g95
sg40
I0
sg155
g143
sg80
g81
sg96
I1
sa(dp569
g17
I149052
sg141
g237
sg16
g168
sg32
g33
sg34
I1
sS'RecMemTask.thisN'
p570
I46
sg46
g47
sg35
g36
sg37
g38
sg39
I0
sg23
I151043
sg41
I1
sg42
g43
sg44
g45
sS'RecMemTask.thisIndex'
p571
g58
(g123
S'.\x00\x00\x00\x00\x00\x00\x00'
p572
tp573
Rp574
sg149
g150
sg14
g116
sg77
I0
sg86
I160
sg21
I151043
sg68
g69
sg48
g49
sg50
I0
sg22
I149730
sg51
g52
sg28
I1
sg27
I151544
sg54
I0
sg15
I676
sg89
g90
sg57
g67
sS'RecMemTask.thisTrialN'
p575
I46
sg55
g56
sg70
I1
sg152
VStimuli/BM08_HO.bmp
p576
sg71
I1
sg72
g73
sg19
I2000
sg78
g79
sg20
I149052
sg53
g11
sS'RecMemTask.thisRepN'
p577
I0
sg82
I01
sg85
g81
sg83
g84
sg18
I151043
sg87
g88
sg24
I151043
sg25
I500
sg26
I151544
sg94
g95
sg40
I0
sg155
g168
sg80
g81
sg96
I1
sa(dp578
g17
I151554
sg141
g218
sg16
g143
sg32
g33
sg34
I1
sS'RecMemTask.thisN'
p579
I47
sg46
g47
sg35
g36
sg37
g38
sg39
I0
sg23
I153545
sg41
I1
sg42
g43
sg44
g45
sS'RecMemTask.thisIndex'
p580
g58
(g123
S'/\x00\x00\x00\x00\x00\x00\x00'
p581
tp582
Rp583
sg149
g150
sg14
g116
sg77
I0
sg86
I160
sg21
I153545
sg68
g69
sg48
g49
sg50
I0
sg22
I151964
sg51
g52
sg28
I0
sg27
I154044
sg54
I0
sg15
I408
sg89
g90
sg57
g67
sS'RecMemTask.thisTrialN'
p584
I47
sg55
g56
sg70
I1
sg152
VStimuli/WF015_FO.bmp
p585
sg71
I1
sg72
g73
sg19
I2000
sg78
g79
sg20
I151555
sg53
g11
sS'RecMemTask.thisRepN'
p586
I0
sg82
I01
sg85
g81
sg83
g84
sg18
I153545
sg87
g88
sg24
I153545
sg25
I500
sg26
I154044
sg94
g95
sg40
I0
sg155
g143
sg80
g81
sg96
I1
sa(dp587
g17
I154053
sg141
g208
sg16
g168
sg32
g33
sg34
I1
sS'RecMemTask.thisN'
p588
I48
sg46
g47
sg35
g36
sg37
g38
sg39
I0
sg23
I156044
sg41
I1
sg42
g43
sg44
g45
sS'RecMemTask.thisIndex'
p589
g58
(g123
S'0\x00\x00\x00\x00\x00\x00\x00'
p590
tp591
Rp592
sg149
g150
sg14
g116
sg77
I0
sg86
I160
sg21
I156045
sg68
g69
sg48
g49
sg50
I0
sg22
I154130
sg51
g52
sg28
I1
sg27
I156546
sg54
I0
sg15
I76
sg89
g90
sg57
g67
sS'RecMemTask.thisTrialN'
p593
I48
sg55
g56
sg70
I1
sg152
VStimuli/AM05_FO.bmp
p594
sg71
I1
sg72
g73
sg19
I2000
sg78
g79
sg20
I154053
sg53
g11
sS'RecMemTask.thisRepN'
p595
I0
sg82
I01
sg85
g81
sg83
g84
sg18
I156045
sg87
g88
sg24
I156045
sg25
I500
sg26
I156546
sg94
g95
sg40
I0
sg155
g168
sg80
g81
sg96
I1
sa(dp596
g17
I156556
sg141
g218
sg16
g143
sg32
g33
sg34
I1
sS'RecMemTask.thisN'
p597
I49
sg46
g47
sg35
g36
sg37
g38
sg39
I0
sg23
I158545
sg41
I1
sg42
g43
sg44
g45
sS'RecMemTask.thisIndex'
p598
g58
(g123
S'1\x00\x00\x00\x00\x00\x00\x00'
p599
tp600
Rp601
sg149
g150
sg14
g116
sg77
I0
sg86
I160
sg21
I158545
sg68
g69
sg48
g49
sg50
I0
sg22
I157614
sg51
g52
sg28
I0
sg27
I159045
sg54
I0
sg15
I1057
sg89
g90
sg57
g67
sS'RecMemTask.thisTrialN'
p602
I49
sg55
g56
sg70
I1
sg152
VStimuli/BF05_FO.bmp
p603
sg71
I1
sg72
g73
sg19
I2000
sg78
g79
sg20
I156556
sg53
g11
sS'RecMemTask.thisRepN'
p604
I0
sg82
I01
sg85
g81
sg83
g84
sg18
I158545
sg87
g88
sg24
I158545
sg25
I500
sg26
I159045
sg94
g95
sg40
I0
sg155
g143
sg80
g81
sg96
I1
sa(dp605
g17
I159049
sg141
g167
sg16
g168
sg32
g33
sg34
I1
sS'RecMemTask.thisN'
p606
I50
sg46
g47
sg35
g36
sg37
g38
sg39
I0
sg23
I161046
sg41
I1
sg42
g43
sg44
g45
sS'RecMemTask.thisIndex'
p607
g58
(g123
S'2\x00\x00\x00\x00\x00\x00\x00'
p608
tp609
Rp610
sg149
g150
sg14
g116
sg77
I0
sg86
I160
sg21
I161046
sg68
g69
sg48
g49
sg50
I0
sg22
I159697
sg51
g52
sg28
I1
sg27
I161545
sg54
I0
sg15
I647
sg89
g90
sg57
g67
sS'RecMemTask.thisTrialN'
p611
I50
sg55
g56
sg70
I1
sg152
VStimuli/AM04_NC.bmp
p612
sg71
I1
sg72
g73
sg19
I2000
sg78
g79
sg20
I159049
sg53
g11
sS'RecMemTask.thisRepN'
p613
I0
sg82
I01
sg85
g81
sg83
g84
sg18
I161046
sg87
g88
sg24
I161046
sg25
I500
sg26
I161545
sg94
g95
sg40
I0
sg155
g168
sg80
g81
sg96
I1
sa(dp614
g17
I161554
sg141
g157
sg16
g143
sg32
g33
sg34
I1
sS'RecMemTask.thisN'
p615
I51
sg46
g47
sg35
g36
sg37
g38
sg39
I0
sg23
I163546
sg41
I1
sg42
g43
sg44
g45
sS'RecMemTask.thisIndex'
p616
g58
(g123
S'3\x00\x00\x00\x00\x00\x00\x00'
p617
tp618
Rp619
sg149
g150
sg14
g116
sg77
I0
sg86
I160
sg21
I163546
sg68
g69
sg48
g49
sg50
I0
sg22
I161998
sg51
g52
sg28
I0
sg27
I164046
sg54
I0
sg15
I443
sg89
g90
sg57
g67
sS'RecMemTask.thisTrialN'
p620
I51
sg55
g56
sg70
I1
sg152
VStimuli/PL_094_O6.1.bmp
p621
sg71
I1
sg72
g73
sg19
I2000
sg78
g79
sg20
I161555
sg53
g11
sS'RecMemTask.thisRepN'
p622
I0
sg82
I01
sg85
g81
sg83
g84
sg18
I163546
sg87
g88
sg24
I163546
sg25
I500
sg26
I164046
sg94
g95
sg40
I0
sg155
g143
sg80
g81
sg96
I1
sa(dp623
g17
I164051
sg141
g178
sg16
g168
sg32
g33
sg34
I1
sS'RecMemTask.thisN'
p624
I52
sg46
g47
sg35
g36
sg37
g38
sg39
I0
sg23
I166046
sg41
I1
sg42
g43
sg44
g45
sS'RecMemTask.thisIndex'
p625
g58
(g123
S'4\x00\x00\x00\x00\x00\x00\x00'
p626
tp627
Rp628
sg149
g150
sg14
g116
sg77
I0
sg86
I160
sg21
I166046
sg68
g69
sg48
g49
sg50
I0
sg22
I164479
sg51
g52
sg28
I1
sg27
I166546
sg54
I0
sg15
I414
sg89
g90
sg57
g67
sS'RecMemTask.thisTrialN'
p629
I52
sg55
g56
sg70
I1
sg152
VStimuli/PL_046_SCENE03.bmp
p630
sg71
I1
sg72
g73
sg19
I2000
sg78
g79
sg20
I164051
sg53
g11
sS'RecMemTask.thisRepN'
p631
I0
sg82
I01
sg85
g81
sg83
g84
sg18
I166046
sg87
g88
sg24
I166046
sg25
I500
sg26
I166546
sg94
g95
sg40
I0
sg155
g168
sg80
g81
sg96
I1
sa(dp632
g17
I166555
sg141
g142
sg16
g143
sg32
g33
sg34
I1
sS'RecMemTask.thisN'
p633
I53
sg46
g47
sg35
g36
sg37
g38
sg39
I0
sg23
I168546
sg41
I1
sg42
g43
sg44
g45
sS'RecMemTask.thisIndex'
p634
g58
(g123
S'5\x00\x00\x00\x00\x00\x00\x00'
p635
tp636
Rp637
sg149
g150
sg14
g116
sg77
I0
sg86
I160
sg21
I168546
sg68
g69
sg48
g49
sg50
I0
sg22
I166898
sg51
g52
sg28
I0
sg27
I169047
sg54
I0
sg15
I342
sg89
g90
sg57
g67
sS'RecMemTask.thisTrialN'
p638
I53
sg55
g56
sg70
I1
sg152
VStimuli/BF03_NC.bmp
p639
sg71
I1
sg72
g73
sg19
I2000
sg78
g79
sg20
I166555
sg53
g11
sS'RecMemTask.thisRepN'
p640
I0
sg82
I01
sg85
g81
sg83
g84
sg18
I168546
sg87
g88
sg24
I168546
sg25
I500
sg26
I169047
sg94
g95
sg40
I0
sg155
g143
sg80
g81
sg96
I1
sa(dp641
g17
I169055
sg141
g237
sg16
g168
sg32
g33
sg34
I1
sS'RecMemTask.thisN'
p642
I54
sg46
g47
sg35
g36
sg37
g38
sg39
I0
sg23
I171047
sg41
I1
sg42
g43
sg44
g45
sS'RecMemTask.thisIndex'
p643
g58
(g123
S'6\x00\x00\x00\x00\x00\x00\x00'
p644
tp645
Rp646
sg149
g150
sg14
g116
sg77
I0
sg86
I160
sg21
I171047
sg68
g69
sg48
g49
sg50
I0
sg22
I169415
sg51
g52
sg28
I1
sg27
I171547
sg54
I0
sg15
I359
sg89
g90
sg57
g67
sS'RecMemTask.thisTrialN'
p647
I54
sg55
g56
sg70
I1
sg152
VStimuli/32M_HO.bmp
p648
sg71
I1
sg72
g73
sg19
I2000
sg78
g79
sg20
I169056
sg53
g11
sS'RecMemTask.thisRepN'
p649
I0
sg82
I01
sg85
g81
sg83
g84
sg18
I171047
sg87
g88
sg24
I171047
sg25
I500
sg26
I171547
sg94
g95
sg40
I0
sg155
g168
sg80
g81
sg96
I1
sa(dp650
g17
I171556
sg141
g189
sg16
g143
sg32
g33
sg34
I1
sS'RecMemTask.thisN'
p651
I55
sg46
g47
sg35
g36
sg37
g38
sg39
I0
sg23
I173547
sg41
I1
sg42
g43
sg44
g45
sS'RecMemTask.thisIndex'
p652
g58
(g123
S'7\x00\x00\x00\x00\x00\x00\x00'
p653
tp654
Rp655
sg149
g150
sg14
g116
sg77
I0
sg86
I160
sg21
I173548
sg68
g69
sg48
g49
sg50
I0
sg22
I172034
sg51
g52
sg28
I0
sg27
I174047
sg54
I0
sg15
I476
sg89
g90
sg57
g67
sS'RecMemTask.thisTrialN'
p656
I55
sg55
g56
sg70
I1
sg152
VStimuli/BM01_HO.bmp
p657
sg71
I1
sg72
g73
sg19
I2000
sg78
g79
sg20
I171556
sg53
g11
sS'RecMemTask.thisRepN'
p658
I0
sg82
I01
sg85
g81
sg83
g84
sg18
I173548
sg87
g88
sg24
I173548
sg25
I500
sg26
I174047
sg94
g95
sg40
I0
sg155
g143
sg80
g81
sg96
I1
sa(dp659
g17
I174056
sg141
g237
sg16
g168
sg32
g33
sg34
I1
sS'RecMemTask.thisN'
p660
I56
sg46
g47
sg35
g36
sg37
g38
sg39
I0
sg23
I176048
sg41
I1
sg42
g43
sg44
g45
sS'RecMemTask.thisIndex'
p661
g58
(g123
S'8\x00\x00\x00\x00\x00\x00\x00'
p662
tp663
Rp664
sg149
g150
sg14
g47
sg77
I0
sg86
I160
sg21
I176048
sg68
g69
sg48
g49
sg50
I0
sg22
I0
sg51
g52
sg28
I0
sg27
I176548
sg54
I0
sg15
I0
sg89
g90
sg57
g67
sS'RecMemTask.thisTrialN'
p665
I56
sg55
g56
sg70
I1
sg152
VStimuli/BM06_HO.bmp
p666
sg71
I1
sg72
g73
sg19
I2000
sg78
g79
sg20
I174056
sg53
g11
sS'RecMemTask.thisRepN'
p667
I0
sg82
I01
sg85
g81
sg83
g84
sg18
I176048
sg87
g88
sg24
I176048
sg25
I500
sg26
I176548
sg94
g95
sg40
I0
sg155
g168
sg80
g81
sg96
I1
sa(dp668
g17
I176557
sg141
g142
sg16
g143
sg32
g33
sg34
I1
sS'RecMemTask.thisN'
p669
I57
sg46
g47
sg35
g36
sg37
g38
sg39
I0
sg23
I178548
sg41
I1
sg42
g43
sg44
g45
sS'RecMemTask.thisIndex'
p670
g58
(g123
S'9\x00\x00\x00\x00\x00\x00\x00'
p671
tp672
Rp673
sg149
g150
sg14
g47
sg77
I0
sg86
I160
sg21
I178548
sg68
g69
sg48
g49
sg50
I0
sg22
I0
sg51
g52
sg28
I0
sg27
I179048
sg54
I0
sg15
I0
sg89
g90
sg57
g67
sS'RecMemTask.thisTrialN'
p674
I57
sg55
g56
sg70
I1
sg152
VStimuli/AM204_NC.bmp
p675
sg71
I1
sg72
g73
sg19
I2000
sg78
g79
sg20
I176557
sg53
g11
sS'RecMemTask.thisRepN'
p676
I0
sg82
I01
sg85
g81
sg83
g84
sg18
I178548
sg87
g88
sg24
I178548
sg25
I500
sg26
I179048
sg94
g95
sg40
I0
sg155
g143
sg80
g81
sg96
I1
sa(dp677
g17
I179056
sg141
g218
sg16
g143
sg32
g33
sg34
I1
sS'RecMemTask.thisN'
p678
I58
sg46
g47
sg35
g36
sg37
g38
sg39
I0
sg23
I181048
sg41
I1
sg42
g43
sg44
g45
sS'RecMemTask.thisIndex'
p679
g58
(g123
S':\x00\x00\x00\x00\x00\x00\x00'
p680
tp681
Rp682
sg149
g150
sg14
g47
sg77
I0
sg86
I160
sg21
I181049
sg68
g69
sg48
g49
sg50
I0
sg22
I0
sg51
g52
sg28
I0
sg27
I181548
sg54
I0
sg15
I0
sg89
g90
sg57
g67
sS'RecMemTask.thisTrialN'
p683
I58
sg55
g56
sg70
I1
sg152
VStimuli/AF01_FO.bmp
p684
sg71
I1
sg72
g73
sg19
I2000
sg78
g79
sg20
I179057
sg53
g11
sS'RecMemTask.thisRepN'
p685
I0
sg82
I01
sg85
g81
sg83
g84
sg18
I181049
sg87
g88
sg24
I181049
sg25
I500
sg26
I181548
sg94
g95
sg40
I0
sg155
g143
sg80
g81
sg96
I1
sa(dp686
g17
I181557
sg141
g157
sg16
g143
sg32
g33
sg34
I1
sS'RecMemTask.thisN'
p687
I59
sg46
g47
sg35
g36
sg37
g38
sg39
I0
sg23
I183548
sg41
I1
sg42
g43
sg44
g45
sS'RecMemTask.thisIndex'
p688
g58
(g123
S';\x00\x00\x00\x00\x00\x00\x00'
p689
tp690
Rp691
sg149
g150
sg14
g47
sg77
I0
sg86
I160
sg21
I183548
sg68
g69
sg48
g49
sg50
I0
sg22
I0
sg51
g52
sg28
I0
sg27
I184048
sg54
I0
sg15
I0
sg89
g90
sg57
g67
sS'RecMemTask.thisTrialN'
p692
I59
sg55
g56
sg70
I1
sg152
VStimuli/PL_091_O5.1.bmp
p693
sg71
I1
sg72
g73
sg19
I2000
sg78
g79
sg20
I181557
sg53
g11
sS'RecMemTask.thisRepN'
p694
I0
sg82
I01
sg85
g81
sg83
g84
sg18
I183548
sg87
g88
sg24
I183548
sg25
I500
sg26
I184048
sg94
g95
sg40
I0
sg155
g143
sg80
g81
sg96
I1
sa(dp695
g17
I184057
sg141
g208
sg16
g168
sg32
g33
sg34
I1
sS'RecMemTask.thisN'
p696
I60
sg46
g47
sg35
g36
sg37
g38
sg39
I0
sg23
I186049
sg41
I1
sg42
g43
sg44
g45
sS'RecMemTask.thisIndex'
p697
g58
(g123
S'<\x00\x00\x00\x00\x00\x00\x00'
p698
tp699
Rp700
sg149
g150
sg14
g47
sg77
I0
sg86
I160
sg21
I186049
sg68
g69
sg48
g49
sg50
I0
sg22
I0
sg51
g52
sg28
I0
sg27
I186549
sg54
I0
sg15
I0
sg89
g90
sg57
g67
sS'RecMemTask.thisTrialN'
p701
I60
sg55
g56
sg70
I1
sg152
VStimuli/43M_FO.bmp
p702
sg71
I1
sg72
g73
sg19
I2000
sg78
g79
sg20
I184057
sg53
g11
sS'RecMemTask.thisRepN'
p703
I0
sg82
I01
sg85
g81
sg83
g84
sg18
I186049
sg87
g88
sg24
I186049
sg25
I500
sg26
I186549
sg94
g95
sg40
I0
sg155
g168
sg80
g81
sg96
I1
sa(dp704
g17
I186554
sg141
g167
sg16
g168
sg32
g33
sg34
I1
sS'RecMemTask.thisN'
p705
I61
sg46
g47
sg35
g36
sg37
g38
sg39
I0
sg23
I188549
sg41
I1
sg42
g43
sg44
g45
sS'RecMemTask.thisIndex'
p706
g58
(g123
S'=\x00\x00\x00\x00\x00\x00\x00'
p707
tp708
Rp709
sg149
g150
sg14
g47
sg77
I0
sg86
I160
sg21
I188549
sg68
g69
sg48
g49
sg50
I0
sg22
I0
sg51
g52
sg28
I0
sg27
I189050
sg54
I0
sg15
I0
sg89
g90
sg57
g67
sS'RecMemTask.thisTrialN'
p710
I61
sg55
g56
sg70
I1
sg152
VStimuli/BM04_NC.bmp
p711
sg71
I1
sg72
g73
sg19
I2000
sg78
g79
sg20
I186555
sg53
g11
sS'RecMemTask.thisRepN'
p712
I0
sg82
I01
sg85
g81
sg83
g84
sg18
I188549
sg87
g88
sg24
I188549
sg25
I500
sg26
I189050
sg94
g95
sg40
I0
sg155
g168
sg80
g81
sg96
I1
sa(dp713
g17
I189055
sg141
g178
sg16
g168
sg32
g33
sg34
I1
sS'RecMemTask.thisN'
p714
I62
sg46
g47
sg35
g36
sg37
g38
sg39
I0
sg23
I191050
sg41
I1
sg42
g43
sg44
g45
sS'RecMemTask.thisIndex'
p715
g58
(g123
S'>\x00\x00\x00\x00\x00\x00\x00'
p716
tp717
Rp718
sg149
g150
sg14
g47
sg77
I0
sg86
I160
sg21
I191050
sg68
g69
sg48
g49
sg50
I0
sg22
I0
sg51
g52
sg28
I0
sg27
I191549
sg54
I0
sg15
I0
sg89
g90
sg57
g67
sS'RecMemTask.thisTrialN'
p719
I62
sg55
g56
sg70
I1
sg152
VStimuli/PL_045_SCENE02.bmp
p720
sg71
I1
sg72
g73
sg19
I2000
sg78
g79
sg20
I189055
sg53
g11
sS'RecMemTask.thisRepN'
p721
I0
sg82
I01
sg85
g81
sg83
g84
sg18
I191050
sg87
g88
sg24
I191050
sg25
I500
sg26
I191549
sg94
g95
sg40
I0
sg155
g168
sg80
g81
sg96
I1
sa(dp722
g17
I191557
sg141
g189
sg16
g143
sg32
g33
sg34
I1
sS'RecMemTask.thisN'
p723
I63
sg46
g47
sg35
g36
sg37
g38
sg39
I0
sg23
I193550
sg41
I1
sg42
g43
sg44
g45
sS'RecMemTask.thisIndex'
p724
g58
(g123
S'?\x00\x00\x00\x00\x00\x00\x00'
p725
tp726
Rp727
sg149
g150
sg14
g47
sg77
I0
sg86
I160
sg21
I193550
sg68
g69
sg48
g49
sg50
I0
sg22
I0
sg51
g52
sg28
I0
sg27
I194050
sg54
I0
sg15
I0
sg89
g90
sg57
g67
sS'RecMemTask.thisTrialN'
p728
I63
sg55
g56
sg70
I1
sg152
VStimuli/2F_HO.bmp
p729
sg71
I1
sg72
g73
sg19
I2000
sg78
g79
sg20
I191558
sg53
g11
sS'RecMemTask.thisRepN'
p730
I0
sg82
I01
sg85
g81
sg83
g84
sg18
I193550
sg87
g88
sg24
I193550
sg25
I500
sg26
I194050
sg94
g95
sg40
I0
sg155
g143
sg80
g81
sg96
I1
sa(dp731
g17
I194059
sg141
g189
sg16
g143
sg32
g33
sg34
I1
sS'RecMemTask.thisN'
p732
I64
sg46
g47
sg35
g36
sg37
g38
sg39
I0
sg23
I196050
sg41
I1
sg42
g43
sg44
g45
sS'RecMemTask.thisIndex'
p733
g58
(g123
S'@\x00\x00\x00\x00\x00\x00\x00'
p734
tp735
Rp736
sg149
g150
sg14
g47
sg77
I0
sg86
I160
sg21
I196050
sg68
g69
sg48
g49
sg50
I0
sg22
I0
sg51
g52
sg28
I0
sg27
I196551
sg54
I0
sg15
I0
sg89
g90
sg57
g67
sS'RecMemTask.thisTrialN'
p737
I64
sg55
g56
sg70
I1
sg152
VStimuli/31M_HO.bmp
p738
sg71
I1
sg72
g73
sg19
I2000
sg78
g79
sg20
I194059
sg53
g11
sS'RecMemTask.thisRepN'
p739
I0
sg82
I01
sg85
g81
sg83
g84
sg18
I196050
sg87
g88
sg24
I196050
sg25
I500
sg26
I196551
sg94
g95
sg40
I0
sg155
g143
sg80
g81
sg96
I1
sa(dp740
g17
I196560
sg141
g142
sg16
g143
sg32
g33
sg34
I1
sS'RecMemTask.thisN'
p741
I65
sg46
g47
sg35
g36
sg37
g38
sg39
I0
sg23
I198551
sg41
I1
sg42
g43
sg44
g45
sS'RecMemTask.thisIndex'
p742
g58
(g123
S'A\x00\x00\x00\x00\x00\x00\x00'
p743
tp744
Rp745
sg149
g150
sg14
g47
sg77
I0
sg86
I160
sg21
I198551
sg68
g69
sg48
g49
sg50
I0
sg22
I0
sg51
g52
sg28
I0
sg27
I199050
sg54
I0
sg15
I0
sg89
g90
sg57
g67
sS'RecMemTask.thisTrialN'
p746
I65
sg55
g56
sg70
I1
sg152
VStimuli/LM242_NC.bmp
p747
sg71
I1
sg72
g73
sg19
I2000
sg78
g79
sg20
I196560
sg53
g11
sS'RecMemTask.thisRepN'
p748
I0
sg82
I01
sg85
g81
sg83
g84
sg18
I198551
sg87
g88
sg24
I198551
sg25
I500
sg26
I199050
sg94
g95
sg40
I0
sg155
g143
sg80
g81
sg96
I1
sa(dp749
g17
I199055
sg141
g178
sg16
g168
sg32
g33
sg34
I1
sS'RecMemTask.thisN'
p750
I66
sg46
g47
sg35
g36
sg37
g38
sg39
I0
sg23
I201051
sg41
I1
sg42
g43
sg44
g45
sS'RecMemTask.thisIndex'
p751
g58
(g123
S'B\x00\x00\x00\x00\x00\x00\x00'
p752
tp753
Rp754
sg149
g150
sg14
g47
sg77
I0
sg86
I160
sg21
I201051
sg68
g69
sg48
g49
sg50
I0
sg22
I0
sg51
g52
sg28
I0
sg27
I201551
sg54
I0
sg15
I0
sg89
g90
sg57
g67
sS'RecMemTask.thisTrialN'
p755
I66
sg55
g56
sg70
I1
sg152
VStimuli/PL_044_SCENE01.bmp
p756
sg71
I1
sg72
g73
sg19
I2000
sg78
g79
sg20
I199056
sg53
g11
sS'RecMemTask.thisRepN'
p757
I0
sg82
I01
sg85
g81
sg83
g84
sg18
I201051
sg87
g88
sg24
I201051
sg25
I500
sg26
I201551
sg94
g95
sg40
I0
sg155
g168
sg80
g81
sg96
I1
sa(dp758
g17
I201557
sg141
g237
sg16
g168
sg32
g33
sg34
I1
sS'RecMemTask.thisN'
p759
I67
sg46
g47
sg35
g36
sg37
g38
sg39
I0
sg23
I203551
sg41
I1
sg42
g43
sg44
g45
sS'RecMemTask.thisIndex'
p760
g58
(g123
S'C\x00\x00\x00\x00\x00\x00\x00'
p761
tp762
Rp763
sg149
g150
sg14
g47
sg77
I0
sg86
I160
sg21
I203551
sg68
g69
sg48
g49
sg50
I0
sg22
I0
sg51
g52
sg28
I0
sg27
I204051
sg54
I0
sg15
I0
sg89
g90
sg57
g67
sS'RecMemTask.thisTrialN'
p764
I67
sg55
g56
sg70
I1
sg152
VStimuli/HF02_HO.bmp
p765
sg71
I1
sg72
g73
sg19
I2000
sg78
g79
sg20
I201557
sg53
g11
sS'RecMemTask.thisRepN'
p766
I0
sg82
I01
sg85
g81
sg83
g84
sg18
I203551
sg87
g88
sg24
I203551
sg25
I500
sg26
I204051
sg94
g95
sg40
I0
sg155
g168
sg80
g81
sg96
I1
sa(dp767
g17
I204061
sg141
g218
sg16
g143
sg32
g33
sg34
I1
sS'RecMemTask.thisN'
p768
I68
sg46
g47
sg35
g36
sg37
g38
sg39
I0
sg23
I206052
sg41
I1
sg42
g43
sg44
g45
sS'RecMemTask.thisIndex'
p769
g58
(g123
S'D\x00\x00\x00\x00\x00\x00\x00'
p770
tp771
Rp772
sg149
g150
sg14
g47
sg77
I0
sg86
I160
sg21
I206052
sg68
g69
sg48
g49
sg50
I0
sg22
I0
sg51
g52
sg28
I0
sg27
I206551
sg54
I0
sg15
I0
sg89
g90
sg57
g67
sS'RecMemTask.thisTrialN'
p773
I68
sg55
g56
sg70
I1
sg152
VStimuli/38M_FO.bmp
p774
sg71
I1
sg72
g73
sg19
I2000
sg78
g79
sg20
I204062
sg53
g11
sS'RecMemTask.thisRepN'
p775
I0
sg82
I01
sg85
g81
sg83
g84
sg18
I206052
sg87
g88
sg24
I206052
sg25
I500
sg26
I206551
sg94
g95
sg40
I0
sg155
g143
sg80
g81
sg96
I1
sa(dp776
g17
I206557
sg141
g167
sg16
g168
sg32
g33
sg34
I1
sS'RecMemTask.thisN'
p777
I69
sg46
g47
sg35
g36
sg37
g38
sg39
I0
sg23
I208552
sg41
I1
sg42
g43
sg44
g45
sS'RecMemTask.thisIndex'
p778
g58
(g123
S'E\x00\x00\x00\x00\x00\x00\x00'
p779
tp780
Rp781
sg149
g150
sg14
g47
sg77
I0
sg86
I160
sg21
I208552
sg68
g69
sg48
g49
sg50
I0
sg22
I0
sg51
g52
sg28
I0
sg27
I209052
sg54
I0
sg15
I0
sg89
g90
sg57
g67
sS'RecMemTask.thisTrialN'
p782
I69
sg55
g56
sg70
I1
sg152
VStimuli/LF209_NC.bmp
p783
sg71
I1
sg72
g73
sg19
I2000
sg78
g79
sg20
I206557
sg53
g11
sS'RecMemTask.thisRepN'
p784
I0
sg82
I01
sg85
g81
sg83
g84
sg18
I208552
sg87
g88
sg24
I208552
sg25
I500
sg26
I209052
sg94
g95
sg40
I0
sg155
g168
sg80
g81
sg96
I1
sa(dp785
g17
I209060
sg141
g157
sg16
g143
sg32
g33
sg34
I1
sS'RecMemTask.thisN'
p786
I70
sg46
g47
sg35
g36
sg37
g38
sg39
I0
sg23
I211052
sg41
I1
sg42
g43
sg44
g45
sS'RecMemTask.thisIndex'
p787
g58
(g123
S'F\x00\x00\x00\x00\x00\x00\x00'
p788
tp789
Rp790
sg149
g150
sg14
g47
sg77
I0
sg86
I160
sg21
I211052
sg68
g69
sg48
g49
sg50
I0
sg22
I0
sg51
g52
sg28
I0
sg27
I211553
sg54
I0
sg15
I0
sg89
g90
sg57
g67
sS'RecMemTask.thisTrialN'
p791
I70
sg55
g56
sg70
I1
sg152
VStimuli/PL_093_O57.1.bmp
p792
sg71
I1
sg72
g73
sg19
I2000
sg78
g79
sg20
I209060
sg53
g11
sS'RecMemTask.thisRepN'
p793
I0
sg82
I01
sg85
g81
sg83
g84
sg18
I211052
sg87
g88
sg24
I211052
sg25
I500
sg26
I211553
sg94
g95
sg40
I0
sg155
g143
sg80
g81
sg96
I1
sa(dp794
g17
I211561
sg141
g167
sg16
g168
sg32
g33
sg34
I1
sS'RecMemTask.thisN'
p795
I71
sg46
g47
sg35
g36
sg37
g38
sg39
I0
sg23
I213553
sg41
I1
sg42
g43
sg44
g45
sS'RecMemTask.thisIndex'
p796
g58
(g123
S'G\x00\x00\x00\x00\x00\x00\x00'
p797
tp798
Rp799
sg149
g150
sg14
g47
sg77
I0
sg86
I160
sg21
I213553
sg68
g69
sg48
g49
sg50
I0
sg22
I0
sg51
g52
sg28
I0
sg27
I214053
sg54
I0
sg15
I0
sg89
g90
sg57
g67
sS'RecMemTask.thisTrialN'
p800
I71
sg55
g56
sg70
I1
sg152
VStimuli/AF216_NC.bmp
p801
sg71
I1
sg72
g73
sg19
I2000
sg78
g79
sg20
I211561
sg53
g11
sS'RecMemTask.thisRepN'
p802
I0
sg82
I01
sg85
g81
sg83
g84
sg18
I213553
sg87
g88
sg24
I213553
sg25
I500
sg26
I214053
sg94
g95
sg40
I0
sg155
g168
sg80
g81
sg96
I1
sa(dp803
g17
I214061
sg141
g142
sg16
g143
sg32
g33
sg34
I1
sS'RecMemTask.thisN'
p804
I72
sg46
g47
sg35
g36
sg37
g38
sg39
I0
sg23
I216053
sg41
I1
sg42
g43
sg44
g45
sS'RecMemTask.thisIndex'
p805
g58
(g123
S'H\x00\x00\x00\x00\x00\x00\x00'
p806
tp807
Rp808
sg149
g150
sg14
g47
sg77
I0
sg86
I160
sg21
I216053
sg68
g69
sg48
g49
sg50
I0
sg22
I0
sg51
g52
sg28
I0
sg27
I216553
sg54
I0
sg15
I0
sg89
g90
sg57
g67
sS'RecMemTask.thisTrialN'
p809
I72
sg55
g56
sg70
I1
sg152
VStimuli/30M_NC.bmp
p810
sg71
I1
sg72
g73
sg19
I2000
sg78
g79
sg20
I214061
sg53
g11
sS'RecMemTask.thisRepN'
p811
I0
sg82
I01
sg85
g81
sg83
g84
sg18
I216053
sg87
g88
sg24
I216053
sg25
I500
sg26
I216553
sg94
g95
sg40
I0
sg155
g143
sg80
g81
sg96
I1
sa(dp812
g17
I216563
sg141
g218
sg16
g143
sg32
g33
sg34
I1
sS'RecMemTask.thisN'
p813
I73
sg46
g47
sg35
g36
sg37
g38
sg39
I0
sg23
I218554
sg41
I1
sg42
g43
sg44
g45
sS'RecMemTask.thisIndex'
p814
g58
(g123
S'I\x00\x00\x00\x00\x00\x00\x00'
p815
tp816
Rp817
sg149
g150
sg14
g47
sg77
I0
sg86
I160
sg21
I218554
sg68
g69
sg48
g49
sg50
I0
sg22
I0
sg51
g52
sg28
I0
sg27
I219053
sg54
I0
sg15
I0
sg89
g90
sg57
g67
sS'RecMemTask.thisTrialN'
p818
I73
sg55
g56
sg70
I1
sg152
VStimuli/WM03_FO.bmp
p819
sg71
I1
sg72
g73
sg19
I2000
sg78
g79
sg20
I216563
sg53
g11
sS'RecMemTask.thisRepN'
p820
I0
sg82
I01
sg85
g81
sg83
g84
sg18
I218554
sg87
g88
sg24
I218554
sg25
I500
sg26
I219053
sg94
g95
sg40
I0
sg155
g143
sg80
g81
sg96
I1
sa(dp821
g17
I219061
sg141
g157
sg16
g143
sg32
g33
sg34
I1
sS'RecMemTask.thisN'
p822
I74
sg46
g47
sg35
g36
sg37
g38
sg39
I0
sg23
I221054
sg41
I1
sg42
g43
sg44
g45
sS'RecMemTask.thisIndex'
p823
g58
(g123
S'J\x00\x00\x00\x00\x00\x00\x00'
p824
tp825
Rp826
sg149
g150
sg14
g47
sg77
I0
sg86
I160
sg21
I221054
sg68
g69
sg48
g49
sg50
I0
sg22
I0
sg51
g52
sg28
I0
sg27
I221554
sg54
I0
sg15
I0
sg89
g90
sg57
g67
sS'RecMemTask.thisTrialN'
p827
I74
sg55
g56
sg70
I1
sg152
VStimuli/PL_100_O82.1.bmp
p828
sg71
I1
sg72
g73
sg19
I2000
sg78
g79
sg20
I219061
sg53
g11
sS'RecMemTask.thisRepN'
p829
I0
sg82
I01
sg85
g81
sg83
g84
sg18
I221054
sg87
g88
sg24
I221054
sg25
I500
sg26
I221554
sg94
g95
sg40
I0
sg155
g143
sg80
g81
sg96
I1
sa(dp830
g17
I221564
sg141
g189
sg16
g143
sg32
g33
sg34
I1
sS'RecMemTask.thisN'
p831
I75
sg46
g47
sg35
g36
sg37
g38
sg39
I0
sg23
I223553
sg41
I1
sg42
g43
sg44
g45
sS'RecMemTask.thisIndex'
p832
g58
(g123
S'K\x00\x00\x00\x00\x00\x00\x00'
p833
tp834
Rp835
sg149
g150
sg14
g47
sg77
I0
sg86
I160
sg21
I223554
sg68
g69
sg48
g49
sg50
I0
sg22
I0
sg51
g52
sg28
I0
sg27
I224054
sg54
I0
sg15
I0
sg89
g90
sg57
g67
sS'RecMemTask.thisTrialN'
p836
I75
sg55
g56
sg70
I1
sg152
VStimuli/BF009_HO.bmp
p837
sg71
I1
sg72
g73
sg19
I2000
sg78
g79
sg20
I221565
sg53
g11
sS'RecMemTask.thisRepN'
p838
I0
sg82
I01
sg85
g81
sg83
g84
sg18
I223554
sg87
g88
sg24
I223554
sg25
I500
sg26
I224054
sg94
g95
sg40
I0
sg155
g143
sg80
g81
sg96
I1
sa(dp839
g17
I224064
sg141
g208
sg16
g168
sg32
g33
sg34
I1
sS'RecMemTask.thisN'
p840
I76
sg46
g47
sg35
g36
sg37
g38
sg39
I0
sg23
I226054
sg41
I1
sg42
g43
sg44
g45
sS'RecMemTask.thisIndex'
p841
g58
(g123
S'L\x00\x00\x00\x00\x00\x00\x00'
p842
tp843
Rp844
sg149
g150
sg14
g47
sg77
I0
sg86
I160
sg21
I226054
sg68
g69
sg48
g49
sg50
I0
sg22
I0
sg51
g52
sg28
I0
sg27
I226554
sg54
I0
sg15
I0
sg89
g90
sg57
g67
sS'RecMemTask.thisTrialN'
p845
I76
sg55
g56
sg70
I1
sg152
VStimuli/WF034_FO.bmp
p846
sg71
I1
sg72
g73
sg19
I2000
sg78
g79
sg20
I224065
sg53
g11
sS'RecMemTask.thisRepN'
p847
I0
sg82
I01
sg85
g81
sg83
g84
sg18
I226054
sg87
g88
sg24
I226054
sg25
I500
sg26
I226554
sg94
g95
sg40
I0
sg155
g168
sg80
g81
sg96
I1
sa(dp848
g17
I226559
sg141
g178
sg16
g168
sg32
g33
sg34
I1
sS'RecMemTask.thisN'
p849
I77
sg46
g47
sg35
g36
sg37
g38
sg39
I0
sg23
I228555
sg41
I1
sg42
g43
sg44
g45
sS'RecMemTask.thisIndex'
p850
g58
(g123
S'M\x00\x00\x00\x00\x00\x00\x00'
p851
tp852
Rp853
sg149
g150
sg14
g47
sg77
I0
sg86
I160
sg21
I228555
sg68
g69
sg48
g49
sg50
I0
sg22
I0
sg51
g52
sg28
I0
sg27
I229054
sg54
I0
sg15
I0
sg89
g90
sg57
g67
sS'RecMemTask.thisTrialN'
p854
I77
sg55
g56
sg70
I1
sg152
VStimuli/PL_041_LEXINGTON17.bmp
p855
sg71
I1
sg72
g73
sg19
I2000
sg78
g79
sg20
I226559
sg53
g11
sS'RecMemTask.thisRepN'
p856
I0
sg82
I01
sg85
g81
sg83
g84
sg18
I228555
sg87
g88
sg24
I228555
sg25
I500
sg26
I229054
sg94
g95
sg40
I0
sg155
g168
sg80
g81
sg96
I1
sa(dp857
g17
I229064
sg141
g208
sg16
g168
sg32
g33
sg34
I1
sS'RecMemTask.thisN'
p858
I78
sg46
g47
sg35
g36
sg37
g38
sg39
I0
sg23
I231054
sg41
I1
sg42
g43
sg44
g45
sS'RecMemTask.thisIndex'
p859
g58
(g123
S'N\x00\x00\x00\x00\x00\x00\x00'
p860
tp861
Rp862
sg149
g150
sg14
g47
sg77
I0
sg86
I160
sg21
I231054
sg68
g69
sg48
g49
sg50
I0
sg22
I0
sg51
g52
sg28
I0
sg27
I231555
sg54
I0
sg15
I0
sg89
g90
sg57
g67
sS'RecMemTask.thisTrialN'
p863
I78
sg55
g56
sg70
I1
sg152
VStimuli/BF10_FO.bmp
p864
sg71
I1
sg72
g73
sg19
I2000
sg78
g79
sg20
I229064
sg53
g11
sS'RecMemTask.thisRepN'
p865
I0
sg82
I01
sg85
g81
sg83
g84
sg18
I231054
sg87
g88
sg24
I231055
sg25
I500
sg26
I231555
sg94
g95
sg40
I0
sg155
g168
sg80
g81
sg96
I1
sa(dp866
g17
I231564
sg141
g237
sg16
g168
sg32
g33
sg34
I1
sS'RecMemTask.thisN'
p867
I79
sg46
g47
sg35
g36
sg37
g38
sg39
I0
sg23
I233556
sg41
I1
sg42
g43
sg44
g45
sS'RecMemTask.thisIndex'
p868
g58
(g123
S'O\x00\x00\x00\x00\x00\x00\x00'
p869
tp870
Rp871
sg149
g150
sg14
g47
sg77
I0
sg86
I160
sg21
I233556
sg68
g69
sg48
g49
sg50
I0
sg22
I0
sg51
g52
sg28
I0
sg27
I234055
sg54
I0
sg15
I0
sg89
g90
sg57
g67
sS'RecMemTask.thisTrialN'
p872
I79
sg55
g56
sg70
I1
sg152
VStimuli/19F_HO.bmp
p873
sg71
I1
sg72
g73
sg19
I2000
sg78
g79
sg20
I231564
sg53
g11
sS'RecMemTask.thisRepN'
p874
I0
sg82
I01
sg85
g81
sg83
g84
sg18
I233556
sg87
g88
sg24
I233556
sg25
I500
sg26
I234055
sg94
g95
sg40
I0
sg155
g168
sg80
g81
sg96
I1
sa(dp875
g17
I234065
sg141
g167
sg16
g168
sg32
g33
sg34
I1
sS'RecMemTask.thisN'
p876
I80
sg46
g47
sg35
g36
sg37
g38
sg39
I0
sg23
I236056
sg41
I1
sg42
g43
sg44
g45
sS'RecMemTask.thisIndex'
p877
g58
(g123
S'P\x00\x00\x00\x00\x00\x00\x00'
p878
tp879
Rp880
sg149
g150
sg14
g47
sg77
I0
sg86
I160
sg21
I236056
sg68
g69
sg48
g49
sg50
I0
sg22
I0
sg51
g52
sg28
I0
sg27
I236556
sg54
I0
sg15
I0
sg89
g90
sg57
g67
sS'RecMemTask.thisTrialN'
p881
I80
sg55
g56
sg70
I1
sg152
VStimuli/WF02_NC.bmp
p882
sg71
I1
sg72
g73
sg19
I2000
sg78
g79
sg20
I234065
sg53
g11
sS'RecMemTask.thisRepN'
p883
I0
sg82
I01
sg85
g81
sg83
g84
sg18
I236056
sg87
g88
sg24
I236056
sg25
I500
sg26
I236556
sg94
g95
sg40
I0
sg155
g168
sg80
g81
sg96
I1
sa(dp884
g17
I236561
sg141
g178
sg16
g168
sg32
g33
sg34
I1
sS'RecMemTask.thisN'
p885
I81
sg46
g47
sg35
g36
sg37
g38
sg39
I0
sg23
I238556
sg41
I1
sg42
g43
sg44
g45
sS'RecMemTask.thisIndex'
p886
g58
(g123
S'Q\x00\x00\x00\x00\x00\x00\x00'
p887
tp888
Rp889
sg149
g150
sg14
g47
sg77
I0
sg86
I160
sg21
I238556
sg68
g69
sg48
g49
sg50
I0
sg22
I0
sg51
g52
sg28
I0
sg27
I239056
sg54
I0
sg15
I0
sg89
g90
sg57
g67
sS'RecMemTask.thisTrialN'
p890
I81
sg55
g56
sg70
I1
sg152
VStimuli/PL_043_LEXINGTON19.bmp
p891
sg71
I1
sg72
g73
sg19
I2000
sg78
g79
sg20
I236562
sg53
g11
sS'RecMemTask.thisRepN'
p892
I0
sg82
I01
sg85
g81
sg83
g84
sg18
I238556
sg87
g88
sg24
I238556
sg25
I500
sg26
I239056
sg94
g95
sg40
I0
sg155
g168
sg80
g81
sg96
I1
sa(dp893
g17
I239061
sg141
g178
sg16
g168
sg32
g33
sg34
I1
sS'RecMemTask.thisN'
p894
I82
sg46
g47
sg35
g36
sg37
g38
sg39
I0
sg23
I241056
sg41
I1
sg42
g43
sg44
g45
sS'RecMemTask.thisIndex'
p895
g58
(g123
S'R\x00\x00\x00\x00\x00\x00\x00'
p896
tp897
Rp898
sg149
g150
sg14
g47
sg77
I0
sg86
I160
sg21
I241056
sg68
g69
sg48
g49
sg50
I0
sg22
I0
sg51
g52
sg28
I0
sg27
I241557
sg54
I0
sg15
I0
sg89
g90
sg57
g67
sS'RecMemTask.thisTrialN'
p899
I82
sg55
g56
sg70
I1
sg152
VStimuli/PL_047_SCENE04.bmp
p900
sg71
I1
sg72
g73
sg19
I2000
sg78
g79
sg20
I239062
sg53
g11
sS'RecMemTask.thisRepN'
p901
I0
sg82
I01
sg85
g81
sg83
g84
sg18
I241056
sg87
g88
sg24
I241056
sg25
I500
sg26
I241557
sg94
g95
sg40
I0
sg155
g168
sg80
g81
sg96
I1
sa(dp902
g17
I241565
sg141
g142
sg16
g143
sg32
g33
sg34
I1
sS'RecMemTask.thisN'
p903
I83
sg46
g47
sg35
g36
sg37
g38
sg39
I0
sg23
I243557
sg41
I1
sg42
g43
sg44
g45
sS'RecMemTask.thisIndex'
p904
g58
(g123
S'S\x00\x00\x00\x00\x00\x00\x00'
p905
tp906
Rp907
sg149
g150
sg14
g47
sg77
I0
sg86
I160
sg21
I243557
sg68
g69
sg48
g49
sg50
I0
sg22
I0
sg51
g52
sg28
I0
sg27
I244056
sg54
I0
sg15
I0
sg89
g90
sg57
g67
sS'RecMemTask.thisTrialN'
p908
I83
sg55
g56
sg70
I1
sg152
VStimuli/AF201_NC.bmp
p909
sg71
I1
sg72
g73
sg19
I2000
sg78
g79
sg20
I241565
sg53
g11
sS'RecMemTask.thisRepN'
p910
I0
sg82
I01
sg85
g81
sg83
g84
sg18
I243557
sg87
g88
sg24
I243557
sg25
I500
sg26
I244056
sg94
g95
sg40
I0
sg155
g143
sg80
g81
sg96
I1
sa(dp911
g17
I244064
sg141
g142
sg16
g143
sg32
g33
sg34
I1
sS'RecMemTask.thisN'
p912
I84
sg46
g47
sg35
g36
sg37
g38
sg39
I0
sg23
I246056
sg41
I1
sg42
g43
sg44
g45
sS'RecMemTask.thisIndex'
p913
g58
(g123
S'T\x00\x00\x00\x00\x00\x00\x00'
p914
tp915
Rp916
sg149
g150
sg14
g47
sg77
I0
sg86
I160
sg21
I246056
sg68
g69
sg48
g49
sg50
I0
sg22
I0
sg51
g52
sg28
I0
sg27
I246556
sg54
I0
sg15
I0
sg89
g90
sg57
g67
sS'RecMemTask.thisTrialN'
p917
I84
sg55
g56
sg70
I1
sg152
VStimuli/LF207_NC.bmp
p918
sg71
I1
sg72
g73
sg19
I2000
sg78
g79
sg20
I244065
sg53
g11
sS'RecMemTask.thisRepN'
p919
I0
sg82
I01
sg85
g81
sg83
g84
sg18
I246056
sg87
g88
sg24
I246056
sg25
I500
sg26
I246556
sg94
g95
sg40
I0
sg155
g143
sg80
g81
sg96
I1
sa(dp920
g17
I246565
sg141
g157
sg16
g143
sg32
g33
sg34
I1
sS'RecMemTask.thisN'
p921
I85
sg46
g47
sg35
g36
sg37
g38
sg39
I0
sg23
I248558
sg41
I1
sg42
g43
sg44
g45
sS'RecMemTask.thisIndex'
p922
g58
(g123
S'U\x00\x00\x00\x00\x00\x00\x00'
p923
tp924
Rp925
sg149
g150
sg14
g47
sg77
I0
sg86
I160
sg21
I248558
sg68
g69
sg48
g49
sg50
I0
sg22
I0
sg51
g52
sg28
I0
sg27
I249057
sg54
I0
sg15
I0
sg89
g90
sg57
g67
sS'RecMemTask.thisTrialN'
p926
I85
sg55
g56
sg70
I1
sg152
VStimuli/PL_096_O69.1.bmp
p927
sg71
I1
sg72
g73
sg19
I2000
sg78
g79
sg20
I246566
sg53
g11
sS'RecMemTask.thisRepN'
p928
I0
sg82
I01
sg85
g81
sg83
g84
sg18
I248558
sg87
g88
sg24
I248558
sg25
I500
sg26
I249057
sg94
g95
sg40
I0
sg155
g143
sg80
g81
sg96
I1
sa(dp929
g17
I249065
sg141
g208
sg16
g168
sg32
g33
sg34
I1
sS'RecMemTask.thisN'
p930
I86
sg46
g47
sg35
g36
sg37
g38
sg39
I0
sg23
I251058
sg41
I1
sg42
g43
sg44
g45
sS'RecMemTask.thisIndex'
p931
g58
(g123
S'V\x00\x00\x00\x00\x00\x00\x00'
p932
tp933
Rp934
sg149
g150
sg14
g47
sg77
I0
sg86
I160
sg21
I251058
sg68
g69
sg48
g49
sg50
I0
sg22
I0
sg51
g52
sg28
I0
sg27
I251558
sg54
I0
sg15
I0
sg89
g90
sg57
g67
sS'RecMemTask.thisTrialN'
p935
I86
sg55
g56
sg70
I1
sg152
VStimuli/3F_FO.bmp
p936
sg71
I1
sg72
g73
sg19
I2000
sg78
g79
sg20
I249066
sg53
g11
sS'RecMemTask.thisRepN'
p937
I0
sg82
I01
sg85
g81
sg83
g84
sg18
I251058
sg87
g88
sg24
I251058
sg25
I500
sg26
I251558
sg94
g95
sg40
I0
sg155
g168
sg80
g81
sg96
I1
sa(dp938
g17
I251566
sg141
g189
sg16
g143
sg32
g33
sg34
I1
sS'RecMemTask.thisN'
p939
I87
sg46
g47
sg35
g36
sg37
g38
sg39
I0
sg23
I253541
sg41
I1
sg42
g43
sg44
g45
sS'RecMemTask.thisIndex'
p940
g58
(g123
S'W\x00\x00\x00\x00\x00\x00\x00'
p941
tp942
Rp943
sg149
g150
sg14
g47
sg77
I0
sg86
I160
sg21
I253541
sg68
g69
sg48
g49
sg50
I0
sg22
I0
sg51
g52
sg28
I0
sg27
I254058
sg54
I0
sg15
I0
sg89
g90
sg57
g67
sS'RecMemTask.thisTrialN'
p944
I87
sg55
g56
sg70
I1
sg152
VStimuli/AM02_HO.bmp
p945
sg71
I1
sg72
g73
sg19
I2000
sg78
g79
sg20
I251566
sg53
g11
sS'RecMemTask.thisRepN'
p946
I0
sg82
I01
sg85
g81
sg83
g84
sg18
I253541
sg87
g88
sg24
I253541
sg25
I500
sg26
I254058
sg94
g95
sg40
I0
sg155
g143
sg80
g81
sg96
I1
sa(dp947
g17
I254066
sg141
g218
sg16
g143
sg32
g33
sg34
I1
sS'RecMemTask.thisN'
p948
I88
sg46
g47
sg35
g36
sg37
g38
sg39
I0
sg23
I256042
sg41
I1
sg42
g43
sg44
g45
sS'RecMemTask.thisIndex'
p949
g58
(g123
S'X\x00\x00\x00\x00\x00\x00\x00'
p950
tp951
Rp952
sg149
g150
sg14
g47
sg77
I0
sg86
I160
sg21
I256042
sg68
g69
sg48
g49
sg50
I0
sg22
I0
sg51
g52
sg28
I0
sg27
I256542
sg54
I0
sg15
I0
sg89
g90
sg57
g67
sS'RecMemTask.thisTrialN'
p953
I88
sg55
g56
sg70
I1
sg152
VStimuli/BM028_FO.bmp
p954
sg71
I1
sg72
g73
sg19
I2000
sg78
g79
sg20
I254067
sg53
g11
sS'RecMemTask.thisRepN'
p955
I0
sg82
I01
sg85
g81
sg83
g84
sg18
I256042
sg87
g88
sg24
I256042
sg25
I500
sg26
I256541
sg94
g95
sg40
I0
sg155
g143
sg80
g81
sg96
I1
sa(dp956
g17
I256547
sg141
g237
sg16
g168
sg32
g33
sg34
I1
sS'RecMemTask.thisN'
p957
I89
sg46
g47
sg35
g36
sg37
g38
sg39
I0
sg23
I258542
sg41
I1
sg42
g43
sg44
g45
sS'RecMemTask.thisIndex'
p958
g58
(g123
S'Y\x00\x00\x00\x00\x00\x00\x00'
p959
tp960
Rp961
sg149
g150
sg14
g47
sg77
I0
sg86
I160
sg21
I258542
sg68
g69
sg48
g49
sg50
I0
sg22
I0
sg51
g52
sg28
I0
sg27
I259042
sg54
I0
sg15
I0
sg89
g90
sg57
g67
sS'RecMemTask.thisTrialN'
p962
I89
sg55
g56
sg70
I1
sg152
VStimuli/29M_HO.bmp
p963
sg71
I1
sg72
g73
sg19
I2000
sg78
g79
sg20
I256547
sg53
g11
sS'RecMemTask.thisRepN'
p964
I0
sg82
I01
sg85
g81
sg83
g84
sg18
I258542
sg87
g88
sg24
I258542
sg25
I500
sg26
I259042
sg94
g95
sg40
I0
sg155
g168
sg80
g81
sg96
I1
sa(dp965
g17
I259047
sg141
g237
sg16
g168
sg32
g33
sg34
I1
sS'RecMemTask.thisN'
p966
I90
sg46
g47
sg35
g36
sg37
g38
sg39
I0
sg23
I261042
sg41
I1
sg42
g43
sg44
g45
sS'RecMemTask.thisIndex'
p967
g58
(g123
S'Z\x00\x00\x00\x00\x00\x00\x00'
p968
tp969
Rp970
sg149
g150
sg14
g47
sg77
I0
sg86
I160
sg21
I261042
sg68
g69
sg48
g49
sg50
I0
sg22
I0
sg51
g52
sg28
I0
sg27
I261543
sg54
I0
sg15
I0
sg89
g90
sg57
g67
sS'RecMemTask.thisTrialN'
p971
I90
sg55
g56
sg70
I1
sg152
VStimuli/13F_HO.bmp
p972
sg71
I1
sg72
g73
sg19
I2000
sg78
g79
sg20
I259047
sg53
g11
sS'RecMemTask.thisRepN'
p973
I0
sg82
I01
sg85
g81
sg83
g84
sg18
I261042
sg87
g88
sg24
I261042
sg25
I500
sg26
I261543
sg94
g95
sg40
I0
sg155
g168
sg80
g81
sg96
I1
sa(dp974
g17
I261551
sg141
g218
sg16
g143
sg32
g33
sg34
I1
sS'RecMemTask.thisN'
p975
I91
sg46
g47
sg35
g36
sg37
g38
sg39
I0
sg23
I263543
sg41
I1
sg42
g43
sg44
g45
sS'RecMemTask.thisIndex'
p976
g58
(g123
S'[\x00\x00\x00\x00\x00\x00\x00'
p977
tp978
Rp979
sg149
g150
sg14
g47
sg77
I0
sg86
I160
sg21
I263543
sg68
g69
sg48
g49
sg50
I0
sg22
I0
sg51
g52
sg28
I0
sg27
I264042
sg54
I0
sg15
I0
sg89
g90
sg57
g67
sS'RecMemTask.thisTrialN'
p980
I91
sg55
g56
sg70
I1
sg152
VStimuli/15F_FO.bmp
p981
sg71
I1
sg72
g73
sg19
I2000
sg78
g79
sg20
I261552
sg53
g11
sS'RecMemTask.thisRepN'
p982
I0
sg82
I01
sg85
g81
sg83
g84
sg18
I263543
sg87
g88
sg24
I263543
sg25
I500
sg26
I264042
sg94
g95
sg40
I0
sg155
g143
sg80
g81
sg96
I1
sa(dp983
g17
I264051
sg141
g189
sg16
g143
sg32
g33
sg34
I1
sS'RecMemTask.thisN'
p984
I92
sg46
g47
sg35
g36
sg37
g38
sg39
I0
sg23
I266043
sg41
I1
sg42
g43
sg44
g45
sS'RecMemTask.thisIndex'
p985
g58
(g123
S'\\\x00\x00\x00\x00\x00\x00\x00'
p986
tp987
Rp988
sg149
g150
sg14
g47
sg77
I0
sg86
I160
sg21
I266043
sg68
g69
sg48
g49
sg50
I0
sg22
I0
sg51
g52
sg28
I0
sg27
I266542
sg54
I0
sg15
I0
sg89
g90
sg57
g67
sS'RecMemTask.thisTrialN'
p989
I92
sg55
g56
sg70
I1
sg152
VStimuli/BF018_HO.bmp
p990
sg71
I1
sg72
g73
sg19
I2000
sg78
g79
sg20
I264052
sg53
g11
sS'RecMemTask.thisRepN'
p991
I0
sg82
I01
sg85
g81
sg83
g84
sg18
I266043
sg87
g88
sg24
I266043
sg25
I500
sg26
I266542
sg94
g95
sg40
I0
sg155
g143
sg80
g81
sg96
I1
sa(dp992
g17
I266550
sg141
g157
sg16
g143
sg32
g33
sg34
I1
sS'RecMemTask.thisN'
p993
I93
sg46
g47
sg35
g36
sg37
g38
sg39
I0
sg23
I268544
sg41
I1
sg42
g43
sg44
g45
sS'RecMemTask.thisIndex'
p994
g58
(g123
S']\x00\x00\x00\x00\x00\x00\x00'
p995
tp996
Rp997
sg149
g150
sg14
g47
sg77
I0
sg86
I160
sg21
I268544
sg68
g69
sg48
g49
sg50
I0
sg22
I0
sg51
g52
sg28
I0
sg27
I269043
sg54
I0
sg15
I0
sg89
g90
sg57
g67
sS'RecMemTask.thisTrialN'
p998
I93
sg55
g56
sg70
I1
sg152
VStimuli/PL_090_O47.1.bmp
p999
sg71
I1
sg72
g73
sg19
I2000
sg78
g79
sg20
I266551
sg53
g11
sS'RecMemTask.thisRepN'
p1000
I0
sg82
I01
sg85
g81
sg83
g84
sg18
I268544
sg87
g88
sg24
I268544
sg25
I500
sg26
I269043
sg94
g95
sg40
I0
sg155
g143
sg80
g81
sg96
I1
sa(dp1001
g17
I269052
sg141
g208
sg16
g168
sg32
g33
sg34
I1
sS'RecMemTask.thisN'
p1002
I94
sg46
g47
sg35
g36
sg37
g38
sg39
I0
sg23
I271043
sg41
I1
sg42
g43
sg44
g45
sS'RecMemTask.thisIndex'
p1003
g58
(g123
S'^\x00\x00\x00\x00\x00\x00\x00'
p1004
tp1005
Rp1006
sg149
g150
sg14
g47
sg77
I0
sg86
I160
sg21
I271043
sg68
g69
sg48
g49
sg50
I0
sg22
I0
sg51
g52
sg28
I0
sg27
I271543
sg54
I0
sg15
I0
sg89
g90
sg57
g67
sS'RecMemTask.thisTrialN'
p1007
I94
sg55
g56
sg70
I1
sg152
VStimuli/BM023_FO.bmp
p1008
sg71
I1
sg72
g73
sg19
I2000
sg78
g79
sg20
I269053
sg53
g11
sS'RecMemTask.thisRepN'
p1009
I0
sg82
I01
sg85
g81
sg83
g84
sg18
I271043
sg87
g88
sg24
I271043
sg25
I500
sg26
I271543
sg94
g95
sg40
I0
sg155
g168
sg80
g81
sg96
I1
sa(dp1010
g17
I271552
sg141
g167
sg16
g168
sg32
g33
sg34
I1
sS'RecMemTask.thisN'
p1011
I95
sg46
g47
sg35
g36
sg37
g38
sg39
I0
sg23
I273544
sg41
I1
sg42
g43
sg44
g45
sS'RecMemTask.thisIndex'
p1012
g58
(g123
S'_\x00\x00\x00\x00\x00\x00\x00'
p1013
tp1014
Rp1015
sg149
g150
sg14
g47
sg77
I0
sg86
I160
sg21
I273544
sg68
g69
sg48
g49
sg50
I0
sg22
I0
sg51
g52
sg28
I0
sg27
I274044
sg54
I0
sg15
I0
sg89
g90
sg57
g67
sS'RecMemTask.thisTrialN'
p1016
I95
sg55
g56
sg70
I1
sg152
VStimuli/AM210_NC.bmp
p1017
sg71
I1
sg72
g73
sg19
I2000
sg78
g79
sg20
I271552
sg53
g11
sS'RecMemTask.thisRepN'
p1018
I0
sg82
I01
sg85
g81
sg83
g84
sg18
I273544
sg87
g88
sg24
I273544
sg25
I500
sg26
I274044
sg94
g95
sg40
I0
sg155
g168
sg80
g81
sg96
I1
sasS'loops'
p1019
(lp1020
g0
(cpsychopy.data.trial
TrialHandler
p1021
g2
Ntp1022
Rp1023
(dp1024
S'origin'
p1025
NsS'thisTrial'
p1026
(lp1027
sS'_exp'
p1028
I4602117328
sg10
S'RecMemPractice'
p1029
sg6
I-1
sS'thisRepN'
p1030
I1
sg29
I01
sg30
g31
sS'data'
p1031
g0
(cpsychopy.data.base
DataHandler
p1032
c__builtin__
dict
p1033
(dp1034
g17
cnumpy.ma.core
_mareconstruct
p1035
(cnumpy.ma.core
MaskedArray
p1036
cnumpy
ndarray
p1037
(I0
tp1038
S'b'
p1039
tp1040
Rp1041
(I1
(I2
I1
tp1042
g59
(S'f4'
p1043
I0
I1
tp1044
Rp1045
(I3
S'<'
p1046
NNNI-1
I-1
I0
tp1047
bI00
S'\x00P(F\x00lfF'
p1048
S'\x00\x00'
p1049
Ntp1050
bsg16
cnumpy.core.multiarray
_reconstruct
p1051
(g1037
(I0
tp1052
g1039
tp1053
Rp1054
(I1
(I2
I1
tp1055
g59
(S'O8'
p1056
I0
I1
tp1057
Rp1058
(I3
S'|'
p1059
NNNI-1
I-1
I63
tp1060
bI00
(lp1061
g113
ag131
atp1062
bsS'ran'
p1063
g1035
(g1036
g1037
g1038
g1039
tp1064
Rp1065
(I1
(I2
I1
tp1066
g1045
I00
S'\x00\x00\x80?\x00\x00\x80?'
p1067
S'\x00\x00'
p1068
Ntp1069
bsg23
g1035
(g1036
g1037
g1038
g1039
tp1070
Rp1071
(I1
(I2
I1
tp1072
g1045
I00
S'\x00\x18GF\x00\xce\x82F'
p1073
S'\x00\x00'
p1074
Ntp1075
bsg19
g1035
(g1036
g1037
g1038
g1039
tp1076
Rp1077
(I1
(I2
I1
tp1078
g1045
I00
S'\x00\x00\xfaD\x00\x00\xfaD'
p1079
S'\x00\x00'
p1080
Ntp1081
bsg20
g1035
(g1036
g1037
g1038
g1039
tp1082
Rp1083
(I1
(I2
I1
tp1084
g1045
I00
S'\x00P(F\x00lfF'
p1085
S'\x00\x00'
p1086
Ntp1087
bsg14
g1051
(g1037
(I0
tp1088
g1039
tp1089
Rp1090
(I1
(I2
I1
tp1091
g1058
I00
(lp1092
g116
ag116
atp1093
bsg21
g1035
(g1036
g1037
g1038
g1039
tp1094
Rp1095
(I1
(I2
I1
tp1096
g1045
I00
S'\x00\x18GF\x00\xd0\x82F'
p1097
S'\x00\x00'
p1098
Ntp1099
bsg22
g1035
(g1036
g1037
g1038
g1039
tp1100
Rp1101
(I1
(I2
I1
tp1102
g1045
I00
S'\x00<=F\x00\xbc\x80F'
p1103
S'\x00\x00'
p1104
Ntp1105
bsg18
g1035
(g1036
g1037
g1038
g1039
tp1106
Rp1107
(I1
(I2
I1
tp1108
g1045
I00
S'\x00\x18GF\x00\xd0\x82F'
p1109
S'\x00\x00'
p1110
Ntp1111
bsg28
g1035
(g1036
g1037
g1038
g1039
tp1112
Rp1113
(I1
(I2
I1
tp1114
g1045
I00
S'\x00\x00\x00\x00\x00\x00\x80?'
p1115
S'\x00\x00'
p1116
Ntp1117
bsg24
g1035
(g1036
g1037
g1038
g1039
tp1118
Rp1119
(I1
(I2
I1
tp1120
g1045
I00
S'\x00\x18GF\x00\xd0\x82F'
p1121
S'\x00\x00'
p1122
Ntp1123
bsg25
g1035
(g1036
g1037
g1038
g1039
tp1124
Rp1125
(I1
(I2
I1
tp1126
g1045
I00
S'\x00\x00\xfaC\x00\x00\xfaC'
p1127
S'\x00\x00'
p1128
Ntp1129
bsg26
g1035
(g1036
g1037
g1038
g1039
tp1130
Rp1131
(I1
(I2
I1
tp1132
g1045
I00
S'\x00\xe8NF\x00\xb6\x86F'
p1133
S'\x00\x00'
p1134
Ntp1135
bsg15
g1035
(g1036
g1037
g1038
g1039
tp1136
Rp1137
(I1
(I2
I1
tp1138
g1045
I00
S'\x00@\xa7D\x00@\xd8D'
p1139
S'\x00\x00'
p1140
Ntp1141
bsS'order'
p1142
g1035
(g1036
g1037
g1038
g1039
tp1143
Rp1144
(I1
(I2
I1
tp1145
g1045
I00
S'\x00\x00\x00\x00\x00\x00\x80?'
p1146
S'\x00\x00'
p1147
Ntp1148
bsg27
g1035
(g1036
g1037
g1038
g1039
tp1149
Rp1150
(I1
(I2
I1
tp1151
g1045
I00
S'\x00\xe8NF\x00\xb6\x86F'
p1152
S'\x00\x00'
p1153
Ntp1154
bstp1155
Rp1156
(dp1157
S'isNumeric'
p1158
(dp1159
g17
I01
sg21
I01
sg16
I00
sg1063
I01
sg22
I01
sg28
I01
sg23
I01
sg18
I01
sg24
I01
sg25
I01
sg19
I01
sg26
I01
sg20
I01
sg15
I01
sg14
I00
sg1142
I01
sg27
I01
ssS'trials'
p1160
g1023
sS'dataTypes'
p1161
(lp1162
g1063
ag1142
ag14
ag15
ag16
ag17
ag18
ag19
ag20
ag21
ag22
ag23
ag24
ag25
ag26
ag27
ag28
asS'dataShape'
p1163
(lp1164
I2
aI1
asbsS'method'
p1165
S'sequential'
p1166
sS'sequenceIndices'
p1167
g1051
(g1037
(I0
tp1168
g1039
tp1169
Rp1170
(I1
(I2
I1
tp1171
g123
I00
S'\x00\x00\x00\x00\x00\x00\x00\x00\x01\x00\x00\x00\x00\x00\x00\x00'
p1172
tp1173
bsS'finished'
p1174
I01
sS'nReps'
p1175
I1
sS'nRemaining'
p1176
I-1
sS'trialList'
p1177
(lp1178
g0
(cpsychopy.data.trial
TrialType
p1179
g1033
(dp1180
g105
g118
sg106
g112
sg107
g115
sg108
g113
stp1181
Rp1182
ag0
(g1179
g1033
(dp1183
g105
g134
sg106
g130
sg107
g115
sg108
g131
stp1184
Rp1185
asS'seed'
p1186
NsS'thisIndex'
p1187
g139
sS'thisN'
p1188
I2
sS'thisTrialN'
p1189
I0
sS'nTotal'
p1190
I2
sbag0
(g1021
g2
Ntp1191
Rp1192
(dp1193
g1025
Nsg1026
(lp1194
sg1028
I4602117328
sg10
S'RecMemTask'
p1195
sg6
I-1
sg1030
I1
sg29
I01
sg30
g31
sg1031
g0
(g1032
g1033
(dp1196
g17
g1035
(g1036
g1037
g1038
g1039
tp1197
Rp1198
(I1
(I96
I1
tp1199
g1045
I00
S'\x00\xfc\x04G\x00\xc8\x0eG\x00\x8b\x18G\x00P"G\x00\x15,G\x00\xd95G\x00\x9e?G\x00aIG\x00$SG\x00\xea\\G\x00\xaefG\x00rpG\x007zG\x00\xfe\x81G\x80\xdf\x86G\x00\xc2\x8bG\x80\xa3\x90G\x80\x86\x95G\x00h\x9aG\x80L\x9fG\x80.\xa4G\x80\x10\xa9G\x80\xf2\xadG\x00\xd5\xb2G\x00\xb7\xb7G\x00\x9a\xbcG\x00|\xc1G\x00^\xc6G\x80?\xcbG\x80!\xd0G\x00\x04\xd5G\x00\xe7\xd9G\x80\xc8\xdeG\x80\xaa\xe3G\x80\x8c\xe8G\x00o\xedG\x80P\xf2G\x802\xf7G\x00\r\xfcG@w\x00H\x00\xe9\x02H\xc0Y\x05H\xc0\xc9\x07H@<\nH\x80\xac\x0cH\x80\x1e\x0fH\x00\x8f\x11H\x80\x00\x14H@q\x16H\x00\xe3\x18H@R\x1bH\x80\xc4\x1dH\xc04 H\xc0\xa6"H\xc0\x17%H\x00\x89\'H\x00\xfa)H@k,H\x00\xdc.H@M1H@\xbe3H\x80.6H\xc0\x9f8H@\x11;H\xc0\x82=H\x00\xf4?H\xc0cBH@\xd5DH@GGH@\xb7IH\x00)LH@\x9aNH@\x0bQH\xc0|SH@\xedUH\x00_XH\x00\xd0ZH\xc0?]H\x00\xb2_H\x00#bH@\x94dH@\x04gH@uiH@\xe7kH\x00XnH@\xc9pH@:sH\x80\xabuH\x80\x1cxH\xc0\x88zH\xc0\xf9|H\xc0k\x7fH`\xee\x80H\xc0&\x82H\x80_\x83H\x00\x98\x84H'
p1200
S'\x00\x00\x00\x00\x00\x00\x00\x00\x00\x00\x00\x00\x00\x00\x00\x00\x00\x00\x00\x00\x00\x00\x00\x00\x00\x00\x00\x00\x00\x00\x00\x00\x00\x00\x00\x00\x00\x00\x00\x00\x00\x00\x00\x00\x00\x00\x00\x00\x00\x00\x00\x00\x00\x00\x00\x00\x00\x00\x00\x00\x00\x00\x00\x00\x00\x00\x00\x00\x00\x00\x00\x00\x00\x00\x00\x00\x00\x00\x00\x00\x00\x00\x00\x00\x00\x00\x00\x00\x00\x00\x00\x00\x00\x00\x00\x00'
p1201
Ntp1202
bsg16
g1051
(g1037
(I0
tp1203
g1039
tp1204
Rp1205
(I1
(I96
I1
tp1206
g1058
I00
(lp1207
g143
ag143
ag168
ag168
ag143
ag168
ag168
ag143
ag168
ag168
ag168
ag143
ag168
ag143
ag143
ag143
ag143
ag143
ag168
ag143
ag143
ag168
ag168
ag168
ag143
ag168
ag143
ag143
ag168
ag143
ag168
ag168
ag168
ag168
ag143
ag143
ag143
ag168
ag168
ag143
ag143
ag168
ag143
ag168
ag168
ag143
ag168
ag143
ag168
ag143
ag168
ag143
ag168
ag143
ag168
ag143
ag168
ag143
ag143
ag143
ag168
ag168
ag168
ag143
ag143
ag143
ag168
ag168
ag143
ag168
ag143
ag168
ag143
ag143
ag143
ag143
ag168
ag168
ag168
ag168
ag168
ag168
ag168
ag143
ag143
ag143
ag168
ag143
ag143
ag168
ag168
ag143
ag143
ag143
ag168
ag168
atp1208
bsg1063
g1035
(g1036
g1037
g1038
g1039
tp1209
Rp1210
(I1
(I96
I1
tp1211
g1045
I00
S'\x00\x00\x80?\x00\x00\x80?\x00\x00\x80?\x00\x00\x80?\x00\x00\x80?\x00\x00\x80?\x00\x00\x80?\x00\x00\x80?\x00\x00\x80?\x00\x00\x80?\x00\x00\x80?\x00\x00\x80?\x00\x00\x80?\x00\x00\x80?\x00\x00\x80?\x00\x00\x80?\x00\x00\x80?\x00\x00\x80?\x00\x00\x80?\x00\x00\x80?\x00\x00\x80?\x00\x00\x80?\x00\x00\x80?\x00\x00\x80?\x00\x00\x80?\x00\x00\x80?\x00\x00\x80?\x00\x00\x80?\x00\x00\x80?\x00\x00\x80?\x00\x00\x80?\x00\x00\x80?\x00\x00\x80?\x00\x00\x80?\x00\x00\x80?\x00\x00\x80?\x00\x00\x80?\x00\x00\x80?\x00\x00\x80?\x00\x00\x80?\x00\x00\x80?\x00\x00\x80?\x00\x00\x80?\x00\x00\x80?\x00\x00\x80?\x00\x00\x80?\x00\x00\x80?\x00\x00\x80?\x00\x00\x80?\x00\x00\x80?\x00\x00\x80?\x00\x00\x80?\x00\x00\x80?\x00\x00\x80?\x00\x00\x80?\x00\x00\x80?\x00\x00\x80?\x00\x00\x80?\x00\x00\x80?\x00\x00\x80?\x00\x00\x80?\x00\x00\x80?\x00\x00\x80?\x00\x00\x80?\x00\x00\x80?\x00\x00\x80?\x00\x00\x80?\x00\x00\x80?\x00\x00\x80?\x00\x00\x80?\x00\x00\x80?\x00\x00\x80?\x00\x00\x80?\x00\x00\x80?\x00\x00\x80?\x00\x00\x80?\x00\x00\x80?\x00\x00\x80?\x00\x00\x80?\x00\x00\x80?\x00\x00\x80?\x00\x00\x80?\x00\x00\x80?\x00\x00\x80?\x00\x00\x80?\x00\x00\x80?\x00\x00\x80?\x00\x00\x80?\x00\x00\x80?\x00\x00\x80?\x00\x00\x80?\x00\x00\x80?\x00\x00\x80?\x00\x00\x80?\x00\x00\x80?\x00\x00\x80?'
p1212
S'\x00\x00\x00\x00\x00\x00\x00\x00\x00\x00\x00\x00\x00\x00\x00\x00\x00\x00\x00\x00\x00\x00\x00\x00\x00\x00\x00\x00\x00\x00\x00\x00\x00\x00\x00\x00\x00\x00\x00\x00\x00\x00\x00\x00\x00\x00\x00\x00\x00\x00\x00\x00\x00\x00\x00\x00\x00\x00\x00\x00\x00\x00\x00\x00\x00\x00\x00\x00\x00\x00\x00\x00\x00\x00\x00\x00\x00\x00\x00\x00\x00\x00\x00\x00\x00\x00\x00\x00\x00\x00\x00\x00\x00\x00\x00\x00'
p1213
Ntp1214
bsg23
g1035
(g1036
g1037
g1038
g1039
tp1215
Rp1216
(I1
(I96
I1
tp1217
g1045
I00
S'\x00\xce\x0cG\x00\x92\x16G\x00W G\x00\x1a*G\x00\xdf3G\x00\xa3=G\x00gGG\x00,QG\x00\xf0ZG\x00\xb5dG\x00ynG\x00=xG\x80\x00\x81G\x00\xe3\x85G\x80\xc5\x8aG\x80\xa7\x8fG\x80\x89\x94G\x80k\x99G\x80M\x9eG\x000\xa3G\x00\x12\xa8G\x00\xf4\xacG\x80\xd6\xb1G\x00\xb9\xb6G\x80\x9a\xbbG\x00}\xc0G\x80^\xc5G\x00A\xcaG\x00#\xcfG\x00\x06\xd4G\x00\xe8\xd8G\x00\xca\xddG\x00\xac\xe2G\x80\x8e\xe7G\x80p\xecG\x80R\xf1G\x804\xf6G\x00\x17\xfbG\x80\xf9\xffG\x80i\x02H\x80\xda\x04H\x80K\x07H\xc0\xbc\tH\xc0-\x0cH\xc0\x9e\x0eH\x00\x10\x11H\xc0\x80\x13H@\xf2\x15H\x00c\x18H@\xd4\x1aH\x80E\x1dH\x80\xb6\x1fH\x80\'"H\x80\x98$H\xc0\t\'H\xc0z)H\x00\xec+H\x00].H\x00\xce0H\x00?3H@\xb05H@!8H\x80\x92:H\x80\x03=H\x80t?H\xc0\xe5AH\xc0VDH\xc0\xc7FH\x009IH\x00\xaaKH\x00\x1bNH@\x8cPH@\xfdRH\x80nUH\x80\xdfWH@PZH\x80\xc1\\H\xc02_H\x80\xa3aH\x00\x15dH\x00\x86fH\x00\xf7hH\x00hkH@\xd9mH\x00JpH\x80\xbbrH\x80,uH@\x99wH\x80\nzH\x80{|H\x80\xec~H\xe0\xae\x80H`\xe7\x81H\x00 \x83H`X\x84H\x00\x91\x85H'
p1218
S'\x00\x00\x00\x00\x00\x00\x00\x00\x00\x00\x00\x00\x00\x00\x00\x00\x00\x00\x00\x00\x00\x00\x00\x00\x00\x00\x00\x00\x00\x00\x00\x00\x00\x00\x00\x00\x00\x00\x00\x00\x00\x00\x00\x00\x00\x00\x00\x00\x00\x00\x00\x00\x00\x00\x00\x00\x00\x00\x00\x00\x00\x00\x00\x00\x00\x00\x00\x00\x00\x00\x00\x00\x00\x00\x00\x00\x00\x00\x00\x00\x00\x00\x00\x00\x00\x00\x00\x00\x00\x00\x00\x00\x00\x00\x00\x00'
p1219
Ntp1220
bsg19
g1035
(g1036
g1037
g1038
g1039
tp1221
Rp1222
(I1
(I96
I1
tp1223
g1045
I00
S'\x00\x00\xfaD\x00\x00\xfaD\x00\x00\xfaD\x00\x00\xfaD\x00\x00\xfaD\x00\x00\xfaD\x00\x00\xfaD\x00\x00\xfaD\x00\x00\xfaD\x00\x00\xfaD\x00\x00\xfaD\x00\x00\xfaD\x00\x00\xfaD\x00\x00\xfaD\x00\x00\xfaD\x00\x00\xfaD\x00\x00\xfaD\x00\x00\xfaD\x00\x00\xfaD\x00\x00\xfaD\x00\x00\xfaD\x00\x00\xfaD\x00\x00\xfaD\x00\x00\xfaD\x00\x00\xfaD\x00\x00\xfaD\x00\x00\xfaD\x00\x00\xfaD\x00\x00\xfaD\x00\x00\xfaD\x00\x00\xfaD\x00\x00\xfaD\x00\x00\xfaD\x00\x00\xfaD\x00\x00\xfaD\x00\x00\xfaD\x00\x00\xfaD\x00\x00\xfaD\x00\x00\xfaD\x00\x00\xfaD\x00\x00\xfaD\x00\x00\xfaD\x00\x00\xfaD\x00\x00\xfaD\x00\x00\xfaD\x00\x00\xfaD\x00\x00\xfaD\x00\x00\xfaD\x00\x00\xfaD\x00\x00\xfaD\x00\x00\xfaD\x00\x00\xfaD\x00\x00\xfaD\x00\x00\xfaD\x00\x00\xfaD\x00\x00\xfaD\x00\x00\xfaD\x00\x00\xfaD\x00\x00\xfaD\x00\x00\xfaD\x00\x00\xfaD\x00\x00\xfaD\x00\x00\xfaD\x00\x00\xfaD\x00\x00\xfaD\x00\x00\xfaD\x00\x00\xfaD\x00\x00\xfaD\x00\x00\xfaD\x00\x00\xfaD\x00\x00\xfaD\x00\x00\xfaD\x00\x00\xfaD\x00\x00\xfaD\x00\x00\xfaD\x00\x00\xfaD\x00\x00\xfaD\x00\x00\xfaD\x00\x00\xfaD\x00\x00\xfaD\x00\x00\xfaD\x00\x00\xfaD\x00\x00\xfaD\x00\x00\xfaD\x00\x00\xfaD\x00\x00\xfaD\x00\x00\xfaD\x00\x00\xfaD\x00\x00\xfaD\x00\x00\xfaD\x00\x00\xfaD\x00\x00\xfaD\x00\x00\xfaD\x00\x00\xfaD\x00\x00\xfaD\x00\x00\xfaD'
p1224
S'\x00\x00\x00\x00\x00\x00\x00\x00\x00\x00\x00\x00\x00\x00\x00\x00\x00\x00\x00\x00\x00\x00\x00\x00\x00\x00\x00\x00\x00\x00\x00\x00\x00\x00\x00\x00\x00\x00\x00\x00\x00\x00\x00\x00\x00\x00\x00\x00\x00\x00\x00\x00\x00\x00\x00\x00\x00\x00\x00\x00\x00\x00\x00\x00\x00\x00\x00\x00\x00\x00\x00\x00\x00\x00\x00\x00\x00\x00\x00\x00\x00\x00\x00\x00\x00\x00\x00\x00\x00\x00\x00\x00\x00\x00\x00\x00'
p1225
Ntp1226
bsg20
g1035
(g1036
g1037
g1038
g1039
tp1227
Rp1228
(I1
(I96
I1
tp1229
g1045
I00
S'\x00\xfc\x04G\x00\xc9\x0eG\x00\x8b\x18G\x00P"G\x00\x15,G\x00\xd95G\x00\x9e?G\x00aIG\x00$SG\x00\xea\\G\x00\xaffG\x00spG\x008zG\x00\xfe\x81G\x80\xdf\x86G\x80\xc2\x8bG\x00\xa4\x90G\x80\x86\x95G\x80h\x9aG\x80L\x9fG\x00/\xa4G\x80\x10\xa9G\x00\xf3\xadG\x00\xd5\xb2G\x00\xb7\xb7G\x00\x9a\xbcG\x80|\xc1G\x00^\xc6G\x80?\xcbG\x80!\xd0G\x80\x04\xd5G\x00\xe7\xd9G\x80\xc8\xdeG\x80\xaa\xe3G\x80\x8c\xe8G\x00o\xedG\x00Q\xf2G\x003\xf7G\x00\r\xfcG\x80w\x00H\x00\xe9\x02H\xc0Y\x05H\x00\xca\x07H\x80<\nH\xc0\xac\x0cH\x80\x1e\x0fH\x00\x8f\x11H\xc0\x00\x14H@q\x16H\x00\xe3\x18H@R\x1bH\xc0\xc4\x1dH\xc04 H\xc0\xa6"H\x00\x18%H\x00\x89\'H\x00\xfa)H@k,H@\xdc.H@M1H@\xbe3H\xc0.6H\xc0\x9f8H\x80\x11;H\xc0\x82=H\x00\xf4?H\x00dBH@\xd5DH\x80GGH@\xb7IH\x00)LH@\x9aNH@\x0bQH\xc0|SH@\xedUH@_XH@\xd0ZH\xc0?]H\x00\xb2_H\x00#bH@\x94dH\x80\x04gH\x80uiH@\xe7kH@XnH\x80\xc9pH\x80:sH\x80\xabuH\xc0\x1cxH\xc0\x88zH\xc0\xf9|H\x00l\x7fH\x80\xee\x80H\xe0&\x82H\xa0_\x83H\x00\x98\x84H'
p1230
S'\x00\x00\x00\x00\x00\x00\x00\x00\x00\x00\x00\x00\x00\x00\x00\x00\x00\x00\x00\x00\x00\x00\x00\x00\x00\x00\x00\x00\x00\x00\x00\x00\x00\x00\x00\x00\x00\x00\x00\x00\x00\x00\x00\x00\x00\x00\x00\x00\x00\x00\x00\x00\x00\x00\x00\x00\x00\x00\x00\x00\x00\x00\x00\x00\x00\x00\x00\x00\x00\x00\x00\x00\x00\x00\x00\x00\x00\x00\x00\x00\x00\x00\x00\x00\x00\x00\x00\x00\x00\x00\x00\x00\x00\x00\x00\x00'
p1231
Ntp1232
bsg14
g1051
(g1037
(I0
tp1233
g1039
tp1234
Rp1235
(I1
(I96
I1
tp1236
g1058
I00
(lp1237
g47
ag116
ag116
ag184
ag184
ag116
ag116
ag116
ag116
ag116
ag116
ag116
ag116
ag116
ag116
ag47
ag116
ag116
ag116
ag116
ag116
ag116
ag116
ag116
ag116
ag116
ag116
ag116
ag116
ag116
ag116
ag116
ag116
ag116
ag116
ag116
ag116
ag116
ag116
ag116
ag116
ag116
ag116
ag116
ag116
ag116
ag116
ag116
ag116
ag116
ag116
ag116
ag116
ag116
ag116
ag116
ag47
ag47
ag47
ag47
ag47
ag47
ag47
ag47
ag47
ag47
ag47
ag47
ag47
ag47
ag47
ag47
ag47
ag47
ag47
ag47
ag47
ag47
ag47
ag47
ag47
ag47
ag47
ag47
ag47
ag47
ag47
ag47
ag47
ag47
ag47
ag47
ag47
ag47
ag47
ag47
atp1238
bsg21
g1035
(g1036
g1037
g1038
g1039
tp1239
Rp1240
(I1
(I96
I1
tp1241
g1045
I00
S'\x00\xce\x0cG\x00\x92\x16G\x00W G\x00\x1a*G\x00\xdf3G\x00\xa3=G\x00gGG\x00,QG\x00\xf0ZG\x00\xb5dG\x00ynG\x00=xG\x00\x01\x81G\x80\xe3\x85G\x80\xc5\x8aG\x80\xa7\x8fG\x80\x89\x94G\x80k\x99G\x00N\x9eG\x000\xa3G\x00\x12\xa8G\x00\xf4\xacG\x80\xd6\xb1G\x00\xb9\xb6G\x80\x9a\xbbG\x00}\xc0G\x00_\xc5G\x80A\xcaG\x00#\xcfG\x00\x06\xd4G\x00\xe8\xd8G\x00\xca\xddG\x00\xac\xe2G\x80\x8e\xe7G\x80p\xecG\x80R\xf1G\x804\xf6G\x00\x17\xfbG\x80\xf9\xffG\x80i\x02H\x80\xda\x04H\xc0K\x07H\xc0\xbc\tH\xc0-\x0cH\xc0\x9e\x0eH\x00\x10\x11H\xc0\x80\x13H@\xf2\x15H@c\x18H@\xd4\x1aH\x80E\x1dH\x80\xb6\x1fH\x80\'"H\x80\x98$H\xc0\t\'H\x00{)H\x00\xec+H\x00].H@\xce0H\x00?3H@\xb05H@!8H\x80\x92:H\x80\x03=H\x80t?H\xc0\xe5AH\xc0VDH\xc0\xc7FH\x009IH\x00\xaaKH\x00\x1bNH@\x8cPH@\xfdRH\x80nUH\x80\xdfWH\x80PZH\x80\xc1\\H\xc02_H\x80\xa3aH\x00\x15dH\x00\x86fH\x00\xf7hH\x00hkH@\xd9mH\x00JpH\x80\xbbrH\x80,uH@\x99wH\x80\nzH\x80{|H\x80\xec~H\xe0\xae\x80H`\xe7\x81H\x00 \x83H`X\x84H\x00\x91\x85H'
p1242
S'\x00\x00\x00\x00\x00\x00\x00\x00\x00\x00\x00\x00\x00\x00\x00\x00\x00\x00\x00\x00\x00\x00\x00\x00\x00\x00\x00\x00\x00\x00\x00\x00\x00\x00\x00\x00\x00\x00\x00\x00\x00\x00\x00\x00\x00\x00\x00\x00\x00\x00\x00\x00\x00\x00\x00\x00\x00\x00\x00\x00\x00\x00\x00\x00\x00\x00\x00\x00\x00\x00\x00\x00\x00\x00\x00\x00\x00\x00\x00\x00\x00\x00\x00\x00\x00\x00\x00\x00\x00\x00\x00\x00\x00\x00\x00\x00'
p1243
Ntp1244
bsg22
g1035
(g1036
g1037
g1038
g1039
tp1245
Rp1246
(I1
(I96
I1
tp1247
g1045
I00
S'\x00\x00\x00\x00\x00d\x13G\x00\x19\x1aG\x00\xaa#G\x00o-G\x00f7G\x00\x1aAG\x00xJG\x00]TG\x00\xdfcG\x00\xa9iG\x00\x9bqG\x00\x0c{G\x80\x9a\x82G\x80\xb6\x87G\x00\x00\x00\x00\x80\'\x91G\x00\xb9\x96G\x80\x15\x9bG\x80M\xa1G\x00\xfb\xa4G\x00\x9b\xa9G\x80\x9d\xaeG\x80p\xb3G\x00c\xb8G\x00w\xbdG\x000\xc2G\x80;\xc7G\x00\x1c\xccG\x00\xcd\xd0G\x80\x8e\xd5G\x00h\xdaG\x00\x8d\xdfG\x00=\xe4G\x80(\xe9G\x00M\xeeG\x00\xfd\xf2G\x00\xf8\xf7G\x80\x81\xfdG\x80\xff\x00H\x80:\x03H@\xb8\x05H\xc0\x1c\x08H\x80\x8d\nH@$\rH\xc0k\x0fH\x808\x12H\x00g\x14H\x80\x84\x16H\x80\xeb\x19H@\xf4\x1bH\x803\x1eH\xc0\x9f H\x80\xfc"H\xc0q%H\x80\x00(H\x00\x00\x00\x00\x00\x00\x00\x00\x00\x00\x00\x00\x00\x00\x00\x00\x00\x00\x00\x00\x00\x00\x00\x00\x00\x00\x00\x00\x00\x00\x00\x00\x00\x00\x00\x00\x00\x00\x00\x00\x00\x00\x00\x00\x00\x00\x00\x00\x00\x00\x00\x00\x00\x00\x00\x00\x00\x00\x00\x00\x00\x00\x00\x00\x00\x00\x00\x00\x00\x00\x00\x00\x00\x00\x00\x00\x00\x00\x00\x00\x00\x00\x00\x00\x00\x00\x00\x00\x00\x00\x00\x00\x00\x00\x00\x00\x00\x00\x00\x00\x00\x00\x00\x00\x00\x00\x00\x00\x00\x00\x00\x00\x00\x00\x00\x00\x00\x00\x00\x00\x00\x00\x00\x00\x00\x00\x00\x00\x00\x00\x00\x00\x00\x00\x00\x00\x00\x00\x00\x00\x00\x00\x00\x00\x00\x00\x00\x00\x00\x00\x00\x00\x00\x00\x00\x00\x00\x00\x00\x00'
p1248
S'\x00\x00\x00\x00\x00\x00\x00\x00\x00\x00\x00\x00\x00\x00\x00\x00\x00\x00\x00\x00\x00\x00\x00\x00\x00\x00\x00\x00\x00\x00\x00\x00\x00\x00\x00\x00\x00\x00\x00\x00\x00\x00\x00\x00\x00\x00\x00\x00\x00\x00\x00\x00\x00\x00\x00\x00\x00\x00\x00\x00\x00\x00\x00\x00\x00\x00\x00\x00\x00\x00\x00\x00\x00\x00\x00\x00\x00\x00\x00\x00\x00\x00\x00\x00\x00\x00\x00\x00\x00\x00\x00\x00\x00\x00\x00\x00'
p1249
Ntp1250
bsg18
g1035
(g1036
g1037
g1038
g1039
tp1251
Rp1252
(I1
(I96
I1
tp1253
g1045
I00
S'\x00\xce\x0cG\x00\x92\x16G\x00W G\x00\x1a*G\x00\xdf3G\x00\xa3=G\x00gGG\x00,QG\x00\xf0ZG\x00\xb5dG\x00ynG\x00=xG\x00\x01\x81G\x80\xe3\x85G\x80\xc5\x8aG\x80\xa7\x8fG\x80\x89\x94G\x80k\x99G\x00N\x9eG\x000\xa3G\x00\x12\xa8G\x00\xf4\xacG\x80\xd6\xb1G\x00\xb9\xb6G\x80\x9a\xbbG\x00}\xc0G\x00_\xc5G\x80A\xcaG\x00#\xcfG\x00\x06\xd4G\x00\xe8\xd8G\x00\xca\xddG\x00\xac\xe2G\x80\x8e\xe7G\x80p\xecG\x80R\xf1G\x804\xf6G\x00\x17\xfbG\x80\xf9\xffG\x80i\x02H\x80\xda\x04H\xc0K\x07H\xc0\xbc\tH\xc0-\x0cH\xc0\x9e\x0eH\x00\x10\x11H\xc0\x80\x13H@\xf2\x15H@c\x18H@\xd4\x1aH\x80E\x1dH\x80\xb6\x1fH\x80\'"H\x80\x98$H\xc0\t\'H\x00{)H\x00\xec+H\x00].H@\xce0H\x00?3H@\xb05H@!8H\x80\x92:H\x80\x03=H\x80t?H\xc0\xe5AH\xc0VDH\xc0\xc7FH\x009IH\x00\xaaKH\x00\x1bNH@\x8cPH@\xfdRH\x80nUH\x80\xdfWH\x80PZH\x80\xc1\\H\xc02_H\x80\xa3aH\x00\x15dH\x00\x86fH\x00\xf7hH\x00hkH@\xd9mH\x00JpH\x80\xbbrH\x80,uH@\x99wH\x80\nzH\x80{|H\x80\xec~H\xe0\xae\x80H`\xe7\x81H\x00 \x83H`X\x84H\x00\x91\x85H'
p1254
S'\x00\x00\x00\x00\x00\x00\x00\x00\x00\x00\x00\x00\x00\x00\x00\x00\x00\x00\x00\x00\x00\x00\x00\x00\x00\x00\x00\x00\x00\x00\x00\x00\x00\x00\x00\x00\x00\x00\x00\x00\x00\x00\x00\x00\x00\x00\x00\x00\x00\x00\x00\x00\x00\x00\x00\x00\x00\x00\x00\x00\x00\x00\x00\x00\x00\x00\x00\x00\x00\x00\x00\x00\x00\x00\x00\x00\x00\x00\x00\x00\x00\x00\x00\x00\x00\x00\x00\x00\x00\x00\x00\x00\x00\x00\x00\x00'
p1255
Ntp1256
bsg28
g1035
(g1036
g1037
g1038
g1039
tp1257
Rp1258
(I1
(I96
I1
tp1259
g1045
I00
S'\x00\x00\x00\x00\x00\x00\x00\x00\x00\x00\x80?\x00\x00\x00\x00\x00\x00\x80?\x00\x00\x80?\x00\x00\x80?\x00\x00\x00\x00\x00\x00\x80?\x00\x00\x80?\x00\x00\x80?\x00\x00\x00\x00\x00\x00\x80?\x00\x00\x00\x00\x00\x00\x00\x00\x00\x00\x00\x00\x00\x00\x00\x00\x00\x00\x00\x00\x00\x00\x80?\x00\x00\x00\x00\x00\x00\x00\x00\x00\x00\x80?\x00\x00\x80?\x00\x00\x80?\x00\x00\x00\x00\x00\x00\x80?\x00\x00\x00\x00\x00\x00\x00\x00\x00\x00\x80?\x00\x00\x00\x00\x00\x00\x80?\x00\x00\x80?\x00\x00\x80?\x00\x00\x80?\x00\x00\x00\x00\x00\x00\x00\x00\x00\x00\x00\x00\x00\x00\x80?\x00\x00\x80?\x00\x00\x00\x00\x00\x00\x00\x00\x00\x00\x80?\x00\x00\x00\x00\x00\x00\x80?\x00\x00\x80?\x00\x00\x00\x00\x00\x00\x80?\x00\x00\x00\x00\x00\x00\x80?\x00\x00\x00\x00\x00\x00\x80?\x00\x00\x00\x00\x00\x00\x80?\x00\x00\x00\x00\x00\x00\x80?\x00\x00\x00\x00\x00\x00\x00\x00\x00\x00\x00\x00\x00\x00\x00\x00\x00\x00\x00\x00\x00\x00\x00\x00\x00\x00\x00\x00\x00\x00\x00\x00\x00\x00\x00\x00\x00\x00\x00\x00\x00\x00\x00\x00\x00\x00\x00\x00\x00\x00\x00\x00\x00\x00\x00\x00\x00\x00\x00\x00\x00\x00\x00\x00\x00\x00\x00\x00\x00\x00\x00\x00\x00\x00\x00\x00\x00\x00\x00\x00\x00\x00\x00\x00\x00\x00\x00\x00\x00\x00\x00\x00\x00\x00\x00\x00\x00\x00\x00\x00\x00\x00\x00\x00\x00\x00\x00\x00\x00\x00\x00\x00\x00\x00\x00\x00\x00\x00\x00\x00\x00\x00\x00\x00\x00\x00\x00\x00\x00\x00\x00\x00\x00\x00\x00\x00\x00\x00\x00\x00\x00\x00\x00\x00\x00\x00\x00\x00\x00\x00\x00\x00\x00\x00\x00\x00\x00\x00\x00\x00\x00\x00\x00\x00'
p1260
S'\x00\x00\x00\x00\x00\x00\x00\x00\x00\x00\x00\x00\x00\x00\x00\x00\x00\x00\x00\x00\x00\x00\x00\x00\x00\x00\x00\x00\x00\x00\x00\x00\x00\x00\x00\x00\x00\x00\x00\x00\x00\x00\x00\x00\x00\x00\x00\x00\x00\x00\x00\x00\x00\x00\x00\x00\x00\x00\x00\x00\x00\x00\x00\x00\x00\x00\x00\x00\x00\x00\x00\x00\x00\x00\x00\x00\x00\x00\x00\x00\x00\x00\x00\x00\x00\x00\x00\x00\x00\x00\x00\x00\x00\x00\x00\x00'
p1261
Ntp1262
bsg24
g1035
(g1036
g1037
g1038
g1039
tp1263
Rp1264
(I1
(I96
I1
tp1265
g1045
I00
S'\x00\xce\x0cG\x00\x92\x16G\x00W G\x00\x1a*G\x00\xdf3G\x00\xa3=G\x00gGG\x00,QG\x00\xf0ZG\x00\xb5dG\x00ynG\x00=xG\x00\x01\x81G\x80\xe3\x85G\x80\xc5\x8aG\x80\xa7\x8fG\x80\x89\x94G\x80k\x99G\x00N\x9eG\x000\xa3G\x00\x12\xa8G\x00\xf4\xacG\x80\xd6\xb1G\x00\xb9\xb6G\x80\x9a\xbbG\x00}\xc0G\x00_\xc5G\x80A\xcaG\x00#\xcfG\x00\x06\xd4G\x00\xe8\xd8G\x00\xca\xddG\x00\xac\xe2G\x80\x8e\xe7G\x80p\xecG\x80R\xf1G\x804\xf6G\x00\x17\xfbG\x80\xf9\xffG\x80i\x02H\x80\xda\x04H\xc0K\x07H\xc0\xbc\tH\xc0-\x0cH\xc0\x9e\x0eH\x00\x10\x11H\xc0\x80\x13H@\xf2\x15H@c\x18H@\xd4\x1aH\x80E\x1dH\x80\xb6\x1fH\x80\'"H\x80\x98$H\xc0\t\'H\x00{)H\x00\xec+H\x00].H@\xce0H\x00?3H@\xb05H@!8H\x80\x92:H\x80\x03=H\x80t?H\xc0\xe5AH\xc0VDH\xc0\xc7FH\x009IH\x00\xaaKH\x00\x1bNH@\x8cPH@\xfdRH\x80nUH\x80\xdfWH\x80PZH\x80\xc1\\H\xc02_H\xc0\xa3aH\x00\x15dH\x00\x86fH\x00\xf7hH\x00hkH@\xd9mH\x00JpH\x80\xbbrH\x80,uH@\x99wH\x80\nzH\x80{|H\x80\xec~H\xe0\xae\x80H`\xe7\x81H\x00 \x83H`X\x84H\x00\x91\x85H'
p1266
S'\x00\x00\x00\x00\x00\x00\x00\x00\x00\x00\x00\x00\x00\x00\x00\x00\x00\x00\x00\x00\x00\x00\x00\x00\x00\x00\x00\x00\x00\x00\x00\x00\x00\x00\x00\x00\x00\x00\x00\x00\x00\x00\x00\x00\x00\x00\x00\x00\x00\x00\x00\x00\x00\x00\x00\x00\x00\x00\x00\x00\x00\x00\x00\x00\x00\x00\x00\x00\x00\x00\x00\x00\x00\x00\x00\x00\x00\x00\x00\x00\x00\x00\x00\x00\x00\x00\x00\x00\x00\x00\x00\x00\x00\x00\x00\x00'
p1267
Ntp1268
bsg25
g1035
(g1036
g1037
g1038
g1039
tp1269
Rp1270
(I1
(I96
I1
tp1271
g1045
I00
S'\x00\x00\xfaC\x00\x00\xfaC\x00\x00\xfaC\x00\x00\xfaC\x00\x00\xfaC\x00\x00\xfaC\x00\x00\xfaC\x00\x00\xfaC\x00\x00\xfaC\x00\x00\xfaC\x00\x00\xfaC\x00\x00\xfaC\x00\x00\xfaC\x00\x00\xfaC\x00\x00\xfaC\x00\x00\xfaC\x00\x00\xfaC\x00\x00\xfaC\x00\x00\xfaC\x00\x00\xfaC\x00\x00\xfaC\x00\x00\xfaC\x00\x00\xfaC\x00\x00\xfaC\x00\x00\xfaC\x00\x00\xfaC\x00\x00\xfaC\x00\x00\xfaC\x00\x00\xfaC\x00\x00\xfaC\x00\x00\xfaC\x00\x00\xfaC\x00\x00\xfaC\x00\x00\xfaC\x00\x00\xfaC\x00\x00\xfaC\x00\x00\xfaC\x00\x00\xfaC\x00\x00\xfaC\x00\x00\xfaC\x00\x00\xfaC\x00\x00\xfaC\x00\x00\xfaC\x00\x00\xfaC\x00\x00\xfaC\x00\x00\xfaC\x00\x00\xfaC\x00\x00\xfaC\x00\x00\xfaC\x00\x00\xfaC\x00\x00\xfaC\x00\x00\xfaC\x00\x00\xfaC\x00\x00\xfaC\x00\x00\xfaC\x00\x00\xfaC\x00\x00\xfaC\x00\x00\xfaC\x00\x00\xfaC\x00\x00\xfaC\x00\x00\xfaC\x00\x00\xfaC\x00\x00\xfaC\x00\x00\xfaC\x00\x00\xfaC\x00\x00\xfaC\x00\x00\xfaC\x00\x00\xfaC\x00\x00\xfaC\x00\x00\xfaC\x00\x00\xfaC\x00\x00\xfaC\x00\x00\xfaC\x00\x00\xfaC\x00\x00\xfaC\x00\x00\xfaC\x00\x00\xfaC\x00\x00\xfaC\x00\x00\xfaC\x00\x00\xfaC\x00\x00\xfaC\x00\x00\xfaC\x00\x00\xfaC\x00\x00\xfaC\x00\x00\xfaC\x00\x00\xfaC\x00\x00\xfaC\x00\x00\xfaC\x00\x00\xfaC\x00\x00\xfaC\x00\x00\xfaC\x00\x00\xfaC\x00\x00\xfaC\x00\x00\xfaC\x00\x00\xfaC\x00\x00\xfaC'
p1272
S'\x00\x00\x00\x00\x00\x00\x00\x00\x00\x00\x00\x00\x00\x00\x00\x00\x00\x00\x00\x00\x00\x00\x00\x00\x00\x00\x00\x00\x00\x00\x00\x00\x00\x00\x00\x00\x00\x00\x00\x00\x00\x00\x00\x00\x00\x00\x00\x00\x00\x00\x00\x00\x00\x00\x00\x00\x00\x00\x00\x00\x00\x00\x00\x00\x00\x00\x00\x00\x00\x00\x00\x00\x00\x00\x00\x00\x00\x00\x00\x00\x00\x00\x00\x00\x00\x00\x00\x00\x00\x00\x00\x00\x00\x00\x00\x00'
p1273
Ntp1274
bsg26
g1035
(g1036
g1037
g1038
g1039
tp1275
Rp1276
(I1
(I96
I1
tp1277
g1045
I00
S'\x00\xc2\x0eG\x00\x86\x18G\x00J"G\x00\x0f,G\x00\xd35G\x00\x97?G\x00\\IG\x00 SG\x00\xe4\\G\x00\xa9fG\x00mpG\x002zG\x00\xfb\x81G\x80\xdc\x86G\x80\xbf\x8bG\x80\xa1\x90G\x00\x84\x95G\x80e\x9aG\x00H\x9fG\x00*\xa4G\x00\x0c\xa9G\x00\xee\xadG\x80\xd0\xb2G\x80\xb2\xb7G\x00\x95\xbcG\x00w\xc1G\x00Y\xc6G\x00;\xcbG\x00\x1d\xd0G\x80\xff\xd4G\x00\xe2\xd9G\x00\xc4\xdeG\x00\xa6\xe3G\x00\x88\xe8G\x80j\xedG\x80L\xf2G\x80.\xf7G\x00\t\xfcG@u\x00H\x80\xe6\x02H\xc0W\x05H\x80\xc8\x07H\x00:\nH\xc0\xaa\x0cH\x00\x1c\x0fH\xc0\x8c\x11H\x00\xfe\x13H\x00o\x16H\x80\xe0\x18H@Q\x1bH@\xc2\x1dH\x803 H\x80\xa4"H\xc0\x15%H\xc0\x86\'H\xc0\xf7)H\x00i,H\x00\xda.H\x00K1H\x00\xbc3H@-6H\x80\x9e8H@\x0f;H\x80\x80=H\xc0\xf1?H\x80bBH\xc0\xd3DH\xc0DGH\xc0\xb5IH\x00\'LH@\x98NH@\tQH@zSH@\xebUH\x80\\XH\x80\xcdZH\x80>]H\x80\xaf_H\xc0 bH\xc0\x91dH\x00\x03gH\x00tiH@\xe5kH\x00VnH\x00\xc7pH@8sH\x80\xa9uH\x80\x1axH@\x87zH\x80\xf8|H\xc0i\x7fH@\xed\x80H\xc0%\x82H`^\x83H\xe0\x96\x84H\x80\xcf\x85H'
p1278
S'\x00\x00\x00\x00\x00\x00\x00\x00\x00\x00\x00\x00\x00\x00\x00\x00\x00\x00\x00\x00\x00\x00\x00\x00\x00\x00\x00\x00\x00\x00\x00\x00\x00\x00\x00\x00\x00\x00\x00\x00\x00\x00\x00\x00\x00\x00\x00\x00\x00\x00\x00\x00\x00\x00\x00\x00\x00\x00\x00\x00\x00\x00\x00\x00\x00\x00\x00\x00\x00\x00\x00\x00\x00\x00\x00\x00\x00\x00\x00\x00\x00\x00\x00\x00\x00\x00\x00\x00\x00\x00\x00\x00\x00\x00\x00\x00'
p1279
Ntp1280
bsg15
g1035
(g1036
g1037
g1038
g1039
tp1281
Rp1282
(I1
(I96
I1
tp1283
g1045
I00
S'\x00\x00\x00\x00\x00@\x93D\x00\x80\xc6C\x00\x80\xacC\x00\x80\xacC\x00\x00\xc6C\x00\x80\xbdC\x00\x00\x8bC\x00\x00\x95C\x00\x80\xdeD\x00@>D\x00\x00\x94C\x00\x00TC\x00\x00\x9cC\x00\x80\xd6C\x00\x00\x00\x00\x00\x80\x83C\x00\xc0\x18D\x00\x00\xadC\x00 \x80D\x00\x80\xcbC\x00\x00\x8aC\x00\x80\xa3C\x00\x00\x9bC\x00\x80\xabC\x00\x80\xdcC\x00\x00\xb3C\x00\x00\xddC\x00\x00\xd6C\x00\x00\xa4C\x00\x80\x89C\x00\x80\x80C\x00\x00\xc4C\x00\x80\x91C\x00\x00\x9bC\x00\x80\xddC\x00\x00\xacC\x00\x80\xc4C\x00\xc09D\x00\xc0\x07D\x00\x80\xa2C\x00\x00\xbcC\x00\x00\xa5C\x00\x80\xa1C\x00\x80\xeeC\x00\x00\x9aC\x00\x00)D\x00\x00\xccC\x00\x00\x98B\x00 \x84D\x00\xc0!D\x00\x80\xddC\x00\x00\xcfC\x00\x00\xabC\x00\x80\xb3C\x00\x00\xeeC\x00\x00\x00\x00\x00\x00\x00\x00\x00\x00\x00\x00\x00\x00\x00\x00\x00\x00\x00\x00\x00\x00\x00\x00\x00\x00\x00\x00\x00\x00\x00\x00\x00\x00\x00\x00\x00\x00\x00\x00\x00\x00\x00\x00\x00\x00\x00\x00\x00\x00\x00\x00\x00\x00\x00\x00\x00\x00\x00\x00\x00\x00\x00\x00\x00\x00\x00\x00\x00\x00\x00\x00\x00\x00\x00\x00\x00\x00\x00\x00\x00\x00\x00\x00\x00\x00\x00\x00\x00\x00\x00\x00\x00\x00\x00\x00\x00\x00\x00\x00\x00\x00\x00\x00\x00\x00\x00\x00\x00\x00\x00\x00\x00\x00\x00\x00\x00\x00\x00\x00\x00\x00\x00\x00\x00\x00\x00\x00\x00\x00\x00\x00\x00\x00\x00\x00\x00\x00\x00\x00\x00\x00\x00\x00\x00\x00\x00\x00\x00\x00\x00\x00\x00\x00\x00\x00\x00\x00\x00\x00'
p1284
S'\x00\x00\x00\x00\x00\x00\x00\x00\x00\x00\x00\x00\x00\x00\x00\x00\x00\x00\x00\x00\x00\x00\x00\x00\x00\x00\x00\x00\x00\x00\x00\x00\x00\x00\x00\x00\x00\x00\x00\x00\x00\x00\x00\x00\x00\x00\x00\x00\x00\x00\x00\x00\x00\x00\x00\x00\x00\x00\x00\x00\x00\x00\x00\x00\x00\x00\x00\x00\x00\x00\x00\x00\x00\x00\x00\x00\x00\x00\x00\x00\x00\x00\x00\x00\x00\x00\x00\x00\x00\x00\x00\x00\x00\x00\x00\x00'
p1285
Ntp1286
bsg1142
g1035
(g1036
g1037
g1038
g1039
tp1287
Rp1288
(I1
(I96
I1
tp1289
g1045
I00
S'\x00\x00\x00\x00\x00\x00\x80?\x00\x00\x00@\x00\x00@@\x00\x00\x80@\x00\x00\xa0@\x00\x00\xc0@\x00\x00\xe0@\x00\x00\x00A\x00\x00\x10A\x00\x00 A\x00\x000A\x00\x00@A\x00\x00PA\x00\x00`A\x00\x00pA\x00\x00\x80A\x00\x00\x88A\x00\x00\x90A\x00\x00\x98A\x00\x00\xa0A\x00\x00\xa8A\x00\x00\xb0A\x00\x00\xb8A\x00\x00\xc0A\x00\x00\xc8A\x00\x00\xd0A\x00\x00\xd8A\x00\x00\xe0A\x00\x00\xe8A\x00\x00\xf0A\x00\x00\xf8A\x00\x00\x00B\x00\x00\x04B\x00\x00\x08B\x00\x00\x0cB\x00\x00\x10B\x00\x00\x14B\x00\x00\x18B\x00\x00\x1cB\x00\x00 B\x00\x00$B\x00\x00(B\x00\x00,B\x00\x000B\x00\x004B\x00\x008B\x00\x00<B\x00\x00@B\x00\x00DB\x00\x00HB\x00\x00LB\x00\x00PB\x00\x00TB\x00\x00XB\x00\x00\\B\x00\x00`B\x00\x00dB\x00\x00hB\x00\x00lB\x00\x00pB\x00\x00tB\x00\x00xB\x00\x00|B\x00\x00\x80B\x00\x00\x82B\x00\x00\x84B\x00\x00\x86B\x00\x00\x88B\x00\x00\x8aB\x00\x00\x8cB\x00\x00\x8eB\x00\x00\x90B\x00\x00\x92B\x00\x00\x94B\x00\x00\x96B\x00\x00\x98B\x00\x00\x9aB\x00\x00\x9cB\x00\x00\x9eB\x00\x00\xa0B\x00\x00\xa2B\x00\x00\xa4B\x00\x00\xa6B\x00\x00\xa8B\x00\x00\xaaB\x00\x00\xacB\x00\x00\xaeB\x00\x00\xb0B\x00\x00\xb2B\x00\x00\xb4B\x00\x00\xb6B\x00\x00\xb8B\x00\x00\xbaB\x00\x00\xbcB\x00\x00\xbeB'
p1290
S'\x00\x00\x00\x00\x00\x00\x00\x00\x00\x00\x00\x00\x00\x00\x00\x00\x00\x00\x00\x00\x00\x00\x00\x00\x00\x00\x00\x00\x00\x00\x00\x00\x00\x00\x00\x00\x00\x00\x00\x00\x00\x00\x00\x00\x00\x00\x00\x00\x00\x00\x00\x00\x00\x00\x00\x00\x00\x00\x00\x00\x00\x00\x00\x00\x00\x00\x00\x00\x00\x00\x00\x00\x00\x00\x00\x00\x00\x00\x00\x00\x00\x00\x00\x00\x00\x00\x00\x00\x00\x00\x00\x00\x00\x00\x00\x00'
p1291
Ntp1292
bsg27
g1035
(g1036
g1037
g1038
g1039
tp1293
Rp1294
(I1
(I96
I1
tp1295
g1045
I00
S'\x00\xc2\x0eG\x00\x86\x18G\x00J"G\x00\x0f,G\x00\xd35G\x00\x97?G\x00\\IG\x00 SG\x00\xe4\\G\x00\xa9fG\x00mpG\x002zG\x00\xfb\x81G\x80\xdc\x86G\x80\xbf\x8bG\x80\xa1\x90G\x00\x84\x95G\x80e\x9aG\x00H\x9fG\x00*\xa4G\x00\x0c\xa9G\x00\xee\xadG\x80\xd0\xb2G\x80\xb2\xb7G\x00\x95\xbcG\x80w\xc1G\x00Y\xc6G\x00;\xcbG\x00\x1d\xd0G\x80\xff\xd4G\x00\xe2\xd9G\x00\xc4\xdeG\x00\xa6\xe3G\x00\x88\xe8G\x80j\xedG\x80L\xf2G\x80.\xf7G\x00\t\xfcG@u\x00H\x80\xe6\x02H\xc0W\x05H\x80\xc8\x07H\x00:\nH\xc0\xaa\x0cH\x00\x1c\x0fH\xc0\x8c\x11H\x00\xfe\x13H\x00o\x16H\x80\xe0\x18H@Q\x1bH@\xc2\x1dH\x803 H\x80\xa4"H\xc0\x15%H\xc0\x86\'H\xc0\xf7)H\x00i,H\x00\xda.H\x00K1H\x00\xbc3H@-6H\x80\x9e8H@\x0f;H\x80\x80=H\xc0\xf1?H\x80bBH\xc0\xd3DH\xc0DGH\xc0\xb5IH\x00\'LH@\x98NH@\tQH@zSH@\xebUH\x80\\XH\x80\xcdZH\x80>]H\x80\xaf_H\xc0 bH\xc0\x91dH\x00\x03gH\x00tiH@\xe5kH\x00VnH\x00\xc7pH@8sH\x80\xa9uH\x80\x1axH\x80\x87zH\x80\xf8|H\xc0i\x7fH@\xed\x80H\xc0%\x82H`^\x83H\xe0\x96\x84H\x80\xcf\x85H'
p1296
S'\x00\x00\x00\x00\x00\x00\x00\x00\x00\x00\x00\x00\x00\x00\x00\x00\x00\x00\x00\x00\x00\x00\x00\x00\x00\x00\x00\x00\x00\x00\x00\x00\x00\x00\x00\x00\x00\x00\x00\x00\x00\x00\x00\x00\x00\x00\x00\x00\x00\x00\x00\x00\x00\x00\x00\x00\x00\x00\x00\x00\x00\x00\x00\x00\x00\x00\x00\x00\x00\x00\x00\x00\x00\x00\x00\x00\x00\x00\x00\x00\x00\x00\x00\x00\x00\x00\x00\x00\x00\x00\x00\x00\x00\x00\x00\x00'
p1297
Ntp1298
bstp1299
Rp1300
(dp1301
g1158
(dp1302
g17
I01
sg21
I01
sg16
I00
sg1063
I01
sg22
I01
sg28
I01
sg23
I01
sg18
I01
sg24
I01
sg25
I01
sg19
I01
sg26
I01
sg20
I01
sg15
I01
sg14
I00
sg1142
I01
sg27
I01
ssg1160
g1192
sg1161
(lp1303
g1063
ag1142
ag14
ag15
ag16
ag17
ag18
ag19
ag20
ag21
ag22
ag23
ag24
ag25
ag26
ag27
ag28
asg1163
(lp1304
I96
aI1
asbsg1165
g1166
sg1167
g1051
(g1037
(I0
tp1305
g1039
tp1306
Rp1307
(I1
(I96
I1
tp1308
g123
I00
S'\x00\x00\x00\x00\x00\x00\x00\x00\x01\x00\x00\x00\x00\x00\x00\x00\x02\x00\x00\x00\x00\x00\x00\x00\x03\x00\x00\x00\x00\x00\x00\x00\x04\x00\x00\x00\x00\x00\x00\x00\x05\x00\x00\x00\x00\x00\x00\x00\x06\x00\x00\x00\x00\x00\x00\x00\x07\x00\x00\x00\x00\x00\x00\x00\x08\x00\x00\x00\x00\x00\x00\x00\t\x00\x00\x00\x00\x00\x00\x00\n\x00\x00\x00\x00\x00\x00\x00\x0b\x00\x00\x00\x00\x00\x00\x00\x0c\x00\x00\x00\x00\x00\x00\x00\r\x00\x00\x00\x00\x00\x00\x00\x0e\x00\x00\x00\x00\x00\x00\x00\x0f\x00\x00\x00\x00\x00\x00\x00\x10\x00\x00\x00\x00\x00\x00\x00\x11\x00\x00\x00\x00\x00\x00\x00\x12\x00\x00\x00\x00\x00\x00\x00\x13\x00\x00\x00\x00\x00\x00\x00\x14\x00\x00\x00\x00\x00\x00\x00\x15\x00\x00\x00\x00\x00\x00\x00\x16\x00\x00\x00\x00\x00\x00\x00\x17\x00\x00\x00\x00\x00\x00\x00\x18\x00\x00\x00\x00\x00\x00\x00\x19\x00\x00\x00\x00\x00\x00\x00\x1a\x00\x00\x00\x00\x00\x00\x00\x1b\x00\x00\x00\x00\x00\x00\x00\x1c\x00\x00\x00\x00\x00\x00\x00\x1d\x00\x00\x00\x00\x00\x00\x00\x1e\x00\x00\x00\x00\x00\x00\x00\x1f\x00\x00\x00\x00\x00\x00\x00 \x00\x00\x00\x00\x00\x00\x00!\x00\x00\x00\x00\x00\x00\x00"\x00\x00\x00\x00\x00\x00\x00#\x00\x00\x00\x00\x00\x00\x00$\x00\x00\x00\x00\x00\x00\x00%\x00\x00\x00\x00\x00\x00\x00&\x00\x00\x00\x00\x00\x00\x00\'\x00\x00\x00\x00\x00\x00\x00(\x00\x00\x00\x00\x00\x00\x00)\x00\x00\x00\x00\x00\x00\x00*\x00\x00\x00\x00\x00\x00\x00+\x00\x00\x00\x00\x00\x00\x00,\x00\x00\x00\x00\x00\x00\x00-\x00\x00\x00\x00\x00\x00\x00.\x00\x00\x00\x00\x00\x00\x00/\x00\x00\x00\x00\x00\x00\x000\x00\x00\x00\x00\x00\x00\x001\x00\x00\x00\x00\x00\x00\x002\x00\x00\x00\x00\x00\x00\x003\x00\x00\x00\x00\x00\x00\x004\x00\x00\x00\x00\x00\x00\x005\x00\x00\x00\x00\x00\x00\x006\x00\x00\x00\x00\x00\x00\x007\x00\x00\x00\x00\x00\x00\x008\x00\x00\x00\x00\x00\x00\x009\x00\x00\x00\x00\x00\x00\x00:\x00\x00\x00\x00\x00\x00\x00;\x00\x00\x00\x00\x00\x00\x00<\x00\x00\x00\x00\x00\x00\x00=\x00\x00\x00\x00\x00\x00\x00>\x00\x00\x00\x00\x00\x00\x00?\x00\x00\x00\x00\x00\x00\x00@\x00\x00\x00\x00\x00\x00\x00A\x00\x00\x00\x00\x00\x00\x00B\x00\x00\x00\x00\x00\x00\x00C\x00\x00\x00\x00\x00\x00\x00D\x00\x00\x00\x00\x00\x00\x00E\x00\x00\x00\x00\x00\x00\x00F\x00\x00\x00\x00\x00\x00\x00G\x00\x00\x00\x00\x00\x00\x00H\x00\x00\x00\x00\x00\x00\x00I\x00\x00\x00\x00\x00\x00\x00J\x00\x00\x00\x00\x00\x00\x00K\x00\x00\x00\x00\x00\x00\x00L\x00\x00\x00\x00\x00\x00\x00M\x00\x00\x00\x00\x00\x00\x00N\x00\x00\x00\x00\x00\x00\x00O\x00\x00\x00\x00\x00\x00\x00P\x00\x00\x00\x00\x00\x00\x00Q\x00\x00\x00\x00\x00\x00\x00R\x00\x00\x00\x00\x00\x00\x00S\x00\x00\x00\x00\x00\x00\x00T\x00\x00\x00\x00\x00\x00\x00U\x00\x00\x00\x00\x00\x00\x00V\x00\x00\x00\x00\x00\x00\x00W\x00\x00\x00\x00\x00\x00\x00X\x00\x00\x00\x00\x00\x00\x00Y\x00\x00\x00\x00\x00\x00\x00Z\x00\x00\x00\x00\x00\x00\x00[\x00\x00\x00\x00\x00\x00\x00\\\x00\x00\x00\x00\x00\x00\x00]\x00\x00\x00\x00\x00\x00\x00^\x00\x00\x00\x00\x00\x00\x00_\x00\x00\x00\x00\x00\x00\x00'
p1309
tp1310
bsg1174
I01
sg1175
I1
sg1176
I-1
sg1177
(lp1311
g0
(g1179
g1033
(dp1312
g152
g153
sg141
g142
sg149
g150
sg155
g143
stp1313
Rp1314
ag0
(g1179
g1033
(dp1315
g152
g164
sg141
g157
sg149
g150
sg155
g143
stp1316
Rp1317
ag0
(g1179
g1033
(dp1318
g152
g175
sg141
g167
sg149
g150
sg155
g168
stp1319
Rp1320
ag0
(g1179
g1033
(dp1321
g152
g186
sg141
g178
sg149
g150
sg155
g168
stp1322
Rp1323
ag0
(g1179
g1033
(dp1324
g152
g196
sg141
g189
sg149
g150
sg155
g143
stp1325
Rp1326
ag0
(g1179
g1033
(dp1327
g152
g205
sg141
g178
sg149
g150
sg155
g168
stp1328
Rp1329
ag0
(g1179
g1033
(dp1330
g152
g215
sg141
g208
sg149
g150
sg155
g168
stp1331
Rp1332
ag0
(g1179
g1033
(dp1333
g152
g225
sg141
g218
sg149
g150
sg155
g143
stp1334
Rp1335
ag0
(g1179
g1033
(dp1336
g152
g234
sg141
g167
sg149
g150
sg155
g168
stp1337
Rp1338
ag0
(g1179
g1033
(dp1339
g152
g244
sg141
g237
sg149
g150
sg155
g168
stp1340
Rp1341
ag0
(g1179
g1033
(dp1342
g152
g253
sg141
g208
sg149
g150
sg155
g168
stp1343
Rp1344
ag0
(g1179
g1033
(dp1345
g152
g262
sg141
g157
sg149
g150
sg155
g143
stp1346
Rp1347
ag0
(g1179
g1033
(dp1348
g152
g271
sg141
g237
sg149
g150
sg155
g168
stp1349
Rp1350
ag0
(g1179
g1033
(dp1351
g152
g280
sg141
g218
sg149
g150
sg155
g143
stp1352
Rp1353
ag0
(g1179
g1033
(dp1354
g152
g289
sg141
g189
sg149
g150
sg155
g143
stp1355
Rp1356
ag0
(g1179
g1033
(dp1357
g152
g298
sg141
g142
sg149
g150
sg155
g143
stp1358
Rp1359
ag0
(g1179
g1033
(dp1360
g152
g307
sg141
g142
sg149
g150
sg155
g143
stp1361
Rp1362
ag0
(g1179
g1033
(dp1363
g152
g316
sg141
g157
sg149
g150
sg155
g143
stp1364
Rp1365
ag0
(g1179
g1033
(dp1366
g152
g325
sg141
g178
sg149
g150
sg155
g168
stp1367
Rp1368
ag0
(g1179
g1033
(dp1369
g152
g334
sg141
g189
sg149
g150
sg155
g143
stp1370
Rp1371
ag0
(g1179
g1033
(dp1372
g152
g343
sg141
g218
sg149
g150
sg155
g143
stp1373
Rp1374
ag0
(g1179
g1033
(dp1375
g152
g352
sg141
g208
sg149
g150
sg155
g168
stp1376
Rp1377
ag0
(g1179
g1033
(dp1378
g152
g361
sg141
g208
sg149
g150
sg155
g168
stp1379
Rp1380
ag0
(g1179
g1033
(dp1381
g152
g370
sg141
g237
sg149
g150
sg155
g168
stp1382
Rp1383
ag0
(g1179
g1033
(dp1384
g152
g379
sg141
g142
sg149
g150
sg155
g143
stp1385
Rp1386
ag0
(g1179
g1033
(dp1387
g152
g388
sg141
g167
sg149
g150
sg155
g168
stp1388
Rp1389
ag0
(g1179
g1033
(dp1390
g152
g397
sg141
g218
sg149
g150
sg155
g143
stp1391
Rp1392
ag0
(g1179
g1033
(dp1393
g152
g406
sg141
g157
sg149
g150
sg155
g143
stp1394
Rp1395
ag0
(g1179
g1033
(dp1396
g152
g415
sg141
g178
sg149
g150
sg155
g168
stp1397
Rp1398
ag0
(g1179
g1033
(dp1399
g152
g424
sg141
g189
sg149
g150
sg155
g143
stp1400
Rp1401
ag0
(g1179
g1033
(dp1402
g152
g433
sg141
g167
sg149
g150
sg155
g168
stp1403
Rp1404
ag0
(g1179
g1033
(dp1405
g152
g442
sg141
g237
sg149
g150
sg155
g168
stp1406
Rp1407
ag0
(g1179
g1033
(dp1408
g152
g451
sg141
g178
sg149
g150
sg155
g168
stp1409
Rp1410
ag0
(g1179
g1033
(dp1411
g152
g460
sg141
g208
sg149
g150
sg155
g168
stp1412
Rp1413
ag0
(g1179
g1033
(dp1414
g152
g469
sg141
g142
sg149
g150
sg155
g143
stp1415
Rp1416
ag0
(g1179
g1033
(dp1417
g152
g478
sg141
g157
sg149
g150
sg155
g143
stp1418
Rp1419
ag0
(g1179
g1033
(dp1420
g152
g487
sg141
g218
sg149
g150
sg155
g143
stp1421
Rp1422
ag0
(g1179
g1033
(dp1423
g152
g496
sg141
g208
sg149
g150
sg155
g168
stp1424
Rp1425
ag0
(g1179
g1033
(dp1426
g152
g505
sg141
g237
sg149
g150
sg155
g168
stp1427
Rp1428
ag0
(g1179
g1033
(dp1429
g152
g514
sg141
g157
sg149
g150
sg155
g143
stp1430
Rp1431
ag0
(g1179
g1033
(dp1432
g152
g523
sg141
g189
sg149
g150
sg155
g143
stp1433
Rp1434
ag0
(g1179
g1033
(dp1435
g152
g532
sg141
g167
sg149
g150
sg155
g168
stp1436
Rp1437
ag0
(g1179
g1033
(dp1438
g152
g153
sg141
g142
sg149
g150
sg155
g143
stp1439
Rp1440
ag0
(g1179
g1033
(dp1441
g152
g549
sg141
g167
sg149
g150
sg155
g168
stp1442
Rp1443
ag0
(g1179
g1033
(dp1444
g152
g558
sg141
g178
sg149
g150
sg155
g168
stp1445
Rp1446
ag0
(g1179
g1033
(dp1447
g152
g567
sg141
g189
sg149
g150
sg155
g143
stp1448
Rp1449
ag0
(g1179
g1033
(dp1450
g152
g576
sg141
g237
sg149
g150
sg155
g168
stp1451
Rp1452
ag0
(g1179
g1033
(dp1453
g152
g585
sg141
g218
sg149
g150
sg155
g143
stp1454
Rp1455
ag0
(g1179
g1033
(dp1456
g152
g594
sg141
g208
sg149
g150
sg155
g168
stp1457
Rp1458
ag0
(g1179
g1033
(dp1459
g152
g603
sg141
g218
sg149
g150
sg155
g143
stp1460
Rp1461
ag0
(g1179
g1033
(dp1462
g152
g612
sg141
g167
sg149
g150
sg155
g168
stp1463
Rp1464
ag0
(g1179
g1033
(dp1465
g152
g621
sg141
g157
sg149
g150
sg155
g143
stp1466
Rp1467
ag0
(g1179
g1033
(dp1468
g152
g630
sg141
g178
sg149
g150
sg155
g168
stp1469
Rp1470
ag0
(g1179
g1033
(dp1471
g152
g639
sg141
g142
sg149
g150
sg155
g143
stp1472
Rp1473
ag0
(g1179
g1033
(dp1474
g152
g648
sg141
g237
sg149
g150
sg155
g168
stp1475
Rp1476
ag0
(g1179
g1033
(dp1477
g152
g657
sg141
g189
sg149
g150
sg155
g143
stp1478
Rp1479
ag0
(g1179
g1033
(dp1480
g152
g666
sg141
g237
sg149
g150
sg155
g168
stp1481
Rp1482
ag0
(g1179
g1033
(dp1483
g152
g675
sg141
g142
sg149
g150
sg155
g143
stp1484
Rp1485
ag0
(g1179
g1033
(dp1486
g152
g684
sg141
g218
sg149
g150
sg155
g143
stp1487
Rp1488
ag0
(g1179
g1033
(dp1489
g152
g693
sg141
g157
sg149
g150
sg155
g143
stp1490
Rp1491
ag0
(g1179
g1033
(dp1492
g152
g702
sg141
g208
sg149
g150
sg155
g168
stp1493
Rp1494
ag0
(g1179
g1033
(dp1495
g152
g711
sg141
g167
sg149
g150
sg155
g168
stp1496
Rp1497
ag0
(g1179
g1033
(dp1498
g152
g720
sg141
g178
sg149
g150
sg155
g168
stp1499
Rp1500
ag0
(g1179
g1033
(dp1501
g152
g729
sg141
g189
sg149
g150
sg155
g143
stp1502
Rp1503
ag0
(g1179
g1033
(dp1504
g152
g738
sg141
g189
sg149
g150
sg155
g143
stp1505
Rp1506
ag0
(g1179
g1033
(dp1507
g152
g747
sg141
g142
sg149
g150
sg155
g143
stp1508
Rp1509
ag0
(g1179
g1033
(dp1510
g152
g756
sg141
g178
sg149
g150
sg155
g168
stp1511
Rp1512
ag0
(g1179
g1033
(dp1513
g152
g765
sg141
g237
sg149
g150
sg155
g168
stp1514
Rp1515
ag0
(g1179
g1033
(dp1516
g152
g774
sg141
g218
sg149
g150
sg155
g143
stp1517
Rp1518
ag0
(g1179
g1033
(dp1519
g152
g783
sg141
g167
sg149
g150
sg155
g168
stp1520
Rp1521
ag0
(g1179
g1033
(dp1522
g152
g792
sg141
g157
sg149
g150
sg155
g143
stp1523
Rp1524
ag0
(g1179
g1033
(dp1525
g152
g801
sg141
g167
sg149
g150
sg155
g168
stp1526
Rp1527
ag0
(g1179
g1033
(dp1528
g152
g810
sg141
g142
sg149
g150
sg155
g143
stp1529
Rp1530
ag0
(g1179
g1033
(dp1531
g152
g819
sg141
g218
sg149
g150
sg155
g143
stp1532
Rp1533
ag0
(g1179
g1033
(dp1534
g152
g828
sg141
g157
sg149
g150
sg155
g143
stp1535
Rp1536
ag0
(g1179
g1033
(dp1537
g152
g837
sg141
g189
sg149
g150
sg155
g143
stp1538
Rp1539
ag0
(g1179
g1033
(dp1540
g152
g846
sg141
g208
sg149
g150
sg155
g168
stp1541
Rp1542
ag0
(g1179
g1033
(dp1543
g152
g855
sg141
g178
sg149
g150
sg155
g168
stp1544
Rp1545
ag0
(g1179
g1033
(dp1546
g152
g864
sg141
g208
sg149
g150
sg155
g168
stp1547
Rp1548
ag0
(g1179
g1033
(dp1549
g152
g873
sg141
g237
sg149
g150
sg155
g168
stp1550
Rp1551
ag0
(g1179
g1033
(dp1552
g152
g882
sg141
g167
sg149
g150
sg155
g168
stp1553
Rp1554
ag0
(g1179
g1033
(dp1555
g152
g891
sg141
g178
sg149
g150
sg155
g168
stp1556
Rp1557
ag0
(g1179
g1033
(dp1558
g152
g900
sg141
g178
sg149
g150
sg155
g168
stp1559
Rp1560
ag0
(g1179
g1033
(dp1561
g152
g909
sg141
g142
sg149
g150
sg155
g143
stp1562
Rp1563
ag0
(g1179
g1033
(dp1564
g152
g918
sg141
g142
sg149
g150
sg155
g143
stp1565
Rp1566
ag0
(g1179
g1033
(dp1567
g152
g927
sg141
g157
sg149
g150
sg155
g143
stp1568
Rp1569
ag0
(g1179
g1033
(dp1570
g152
g936
sg141
g208
sg149
g150
sg155
g168
stp1571
Rp1572
ag0
(g1179
g1033
(dp1573
g152
g945
sg141
g189
sg149
g150
sg155
g143
stp1574
Rp1575
ag0
(g1179
g1033
(dp1576
g152
g954
sg141
g218
sg149
g150
sg155
g143
stp1577
Rp1578
ag0
(g1179
g1033
(dp1579
g152
g963
sg141
g237
sg149
g150
sg155
g168
stp1580
Rp1581
ag0
(g1179
g1033
(dp1582
g152
g972
sg141
g237
sg149
g150
sg155
g168
stp1583
Rp1584
ag0
(g1179
g1033
(dp1585
g152
g981
sg141
g218
sg149
g150
sg155
g143
stp1586
Rp1587
ag0
(g1179
g1033
(dp1588
g152
g990
sg141
g189
sg149
g150
sg155
g143
stp1589
Rp1590
ag0
(g1179
g1033
(dp1591
g152
g999
sg141
g157
sg149
g150
sg155
g143
stp1592
Rp1593
ag0
(g1179
g1033
(dp1594
g152
g1008
sg141
g208
sg149
g150
sg155
g168
stp1595
Rp1596
ag0
(g1179
g1033
(dp1597
g152
g1017
sg141
g167
sg149
g150
sg155
g168
stp1598
Rp1599
asg1186
Nsg1187
g1015
sg1188
I96
sg1189
I0
sg1190
I96
sbasS'savePickle'
p1600
I00
sb.