ccopy_reg
_reconstructor
p0
(cpsychopy.data.experiment
ExperimentHandler
p1
c__builtin__
object
p2
Ntp3
Rp4
(dp5
S'originPath'
p6
NsS'dataFileName'
p7
V/Users/monica/Documents/GitHub/ABCD_nback/data/NDAR_INVABCD1234/NDAR_INVABCD1234
p8
sS'runtimeInfo'
p9
NsS'name'
p10
S'Emo_Nback_20180527'
p11
sS'dataNames'
p12
(lp13
S'Stim.RESP'
p14
aS'Stim.RT'
p15
aS'Stim.CRESP'
p16
aS'Stim.StartTime'
p17
aS'Stim.FinishTime'
p18
aS'Stim.Duration'
p19
aS'Stim.OnsetTime'
p20
aS'Fix.StartTime'
p21
aS'Stim.RTTime'
p22
aS'Stim.OffsetTime'
p23
aS'Fix.OnsetTime'
p24
aS'Fix.Duration'
p25
aS'Fix.OffsetTime'
p26
aS'Fix.FinishTime'
p27
aS'Stim.ACC'
p28
asS'autoLog'
p29
I01
sS'extraInfo'
p30
(dp31
S'Allowed'
p32
(lp33
S'1'
p34
aS'num_1'
p35
aS'left'
p36
aS'2'
p37
aS'num_2'
p38
aS'right'
p39
asS'DataFile.Basename'
p40
VEmo_Nback_20180527_v1-ABCD1234
p41
sS'Group'
p42
I1
sS'Target'
p43
I1
sS'FontStyle'
p44
S'Verdana'
p45
sS'RunNumber'
p46
I1
sVHandedness
p47
VRight
p48
sVNARGUID
p49
VABCD1234
p50
sS'SUBID'
p51
I0
sS'SessionDate'
p52
S'08/07/2018'
p53
sVVersion
p54
I1
sS'SessionTime'
p55
S'16:21:55'
p56
sS'RuntimeCapabilities'
p57
S'Professional'
p58
sS'Clock.Information'
p59
I0
sS'date'
p60
S'2018-08-07_162155'
p61
sS'RuntimeVersion'
p62
S'2.0.10.356'
p63
sS'SessionStart'
p64
S''
p65
sS'ExperimentName'
p66
g11
sS'TrialsPerRun[Session]'
p67
I160
sVDebugging
p68
I01
sVRun
p69
VAll
p70
sS'ExperimentVersion'
p71
S'1.0.0.1180'
p72
sS'ConsecNonResp[Session]'
p73
I0
sS'TotalRespGreater200[Session]'
p74
I0
sS'Nontarget'
p75
(lp76
g37
ag38
ag39
asS'StudioVersion'
p77
S'2.0.10.252'
p78
sVSession
p79
VRecMem
p80
sS'RuntimeVersionExpected'
p81
g63
sS'ConsecRTLess200[Session]'
p82
I0
sVGoggles
p83
I00
sS'StimuliDir'
p84
S'Stimuli/'
p85
sVTime Point
p86
VYear 2
p87
sS'Main.RefreshRate'
p88
cnumpy.core.multiarray
scalar
p89
(cnumpy
dtype
p90
(S'f8'
p91
I0
I1
tp92
Rp93
(I3
S'<'
p94
NNNI-1
I-1
I0
tp95
bS'\x84}\x89\xf2\xcf\xc9M@'
p96
tp97
Rp98
sS'Subject'
p99
I1
ssS'loopsUnfinished'
p100
(lp101
sS'saveWideText'
p102
I00
sS'thisEntry'
p103
(dp104
sS'version'
p105
g65
sS'_paramNamesSoFar'
p106
(lp107
S'Stimulus'
p108
aS'TargetType'
p109
aS'BlockType'
p110
aS'Stim_CRESP'
p111
asS'entries'
p112
(lp113
(dp114
g17
I1435
sg109
Vnewposface
p115
sg16
VNew
p116
sg44
g45
sg42
I1
sg64
g65
sg47
g48
sS'RecMemPractice.thisRepN'
p117
I0
sg49
g50
sg51
I0
sg23
I3417
sg52
g53
sg55
g56
sg57
g58
sg110
VRec
p118
sg14
S'left'
p119
sg59
I0
sg67
I160
sg21
I3417
sg69
g70
sg73
I0
sg22
I2185
sS'RecMemPractice.thisTrialN'
p120
I0
sg75
g76
sg77
g78
sg28
I0
sg79
g80
sg27
I3917
sg82
I0
sg83
I00
sg15
I749
sg86
g87
sg88
g98
sg40
g41
sg43
I1
sg108
VStimuli/PracticeRec4.bmp
p121
sg46
I1
sg32
g33
sg19
I2000
sg60
g61
sg20
I1435
sS'RecMemPractice.thisN'
p122
I0
sg81
g63
sg66
g11
sg68
I01
sg71
g72
sg62
g63
sg18
I3417
sg54
I1
sg24
I3417
sg25
I500
sg26
I3917
sg84
g85
sg74
I0
sg111
g116
sS'RecMemPractice.thisIndex'
p123
g89
(g90
(S'i8'
p124
I0
I1
tp125
Rp126
(I3
S'<'
p127
NNNI-1
I-1
I0
tp128
bS'\x00\x00\x00\x00\x00\x00\x00\x00'
p129
tp130
Rp131
sg99
I1
sa(dp132
g17
I5421
sg109
Voldposface
p133
sg16
VOld
p134
sg44
g45
sg42
I1
sg64
g65
sg47
g48
sS'RecMemPractice.thisRepN'
p135
I0
sg49
g50
sg51
I0
sg23
I7417
sg52
g53
sg55
g56
sg57
g58
sg110
g118
sg14
S'left'
p136
sg59
I0
sg67
I160
sg21
I7417
sg69
g70
sg73
I0
sg22
I5869
sS'RecMemPractice.thisTrialN'
p137
I1
sg75
g76
sg77
g78
sg28
I1
sg79
g80
sg27
I7917
sg82
I0
sg83
I00
sg15
I446
sg86
g87
sg88
g98
sg40
g41
sg43
I1
sg108
VStimuli/PracticeHO2.bmp
p138
sg46
I1
sg32
g33
sg19
I2000
sg60
g61
sg20
I5422
sS'RecMemPractice.thisN'
p139
I1
sg81
g63
sg66
g11
sg68
I01
sg71
g72
sg62
g63
sg18
I7417
sg54
I1
sg24
I7418
sg25
I500
sg26
I7917
sg84
g85
sg74
I0
sg111
g134
sS'RecMemPractice.thisIndex'
p140
g89
(g126
S'\x01\x00\x00\x00\x00\x00\x00\x00'
p141
tp142
Rp143
sg99
I1
sa(dp144
g17
I13841
sS'TargetType'
p145
Vnewneutface
p146
sg16
VNew
p147
sg44
g45
sg42
I1
sS'RecMemTask.thisN'
p148
I0
sg64
g65
sg47
g48
sg49
g50
sg51
I0
sg23
I15840
sg52
g53
sg55
g56
sg57
g58
sS'RecMemTask.thisIndex'
p149
g89
(g126
S'\x00\x00\x00\x00\x00\x00\x00\x00'
p150
tp151
Rp152
sS'BlockType'
p153
VRec
p154
sg14
g65
sg59
I0
sg67
I160
sg21
I15840
sg69
g70
sg73
I0
sg22
I0
sg75
g76
sg77
g78
sg28
I0
sg79
g80
sg27
I16352
sg82
I0
sg83
I00
sg15
I0
sg86
g87
sg88
g98
sS'RecMemTask.thisTrialN'
p155
I0
sg40
g41
sg43
I1
sS'Stimulus'
p156
VStimuli/AF219_NC.bmp
p157
sg46
I1
sg32
g33
sg19
I2000
sg60
g61
sg20
I13841
sg66
g11
sS'RecMemTask.thisRepN'
p158
I0
sg68
I01
sg71
g72
sg62
g63
sg18
I15840
sg54
I1
sg24
I15840
sg25
I500
sg26
I16352
sg84
g85
sg74
I0
sS'Stim_CRESP'
p159
g147
sg81
g63
sg99
I1
sa(dp160
g17
I16357
sg145
Vnewplace
p161
sg16
g147
sg44
g45
sg42
I1
sS'RecMemTask.thisN'
p162
I1
sg64
g65
sg47
g48
sg49
g50
sg51
I0
sg23
I18351
sg52
g53
sg55
g56
sg57
g58
sS'RecMemTask.thisIndex'
p163
g89
(g126
S'\x01\x00\x00\x00\x00\x00\x00\x00'
p164
tp165
Rp166
sg153
g154
sg14
g65
sg59
I0
sg67
I160
sg21
I18351
sg69
g70
sg73
I0
sg22
I0
sg75
g76
sg77
g78
sg28
I0
sg79
g80
sg27
I18851
sg82
I0
sg83
I00
sg15
I0
sg86
g87
sg88
g98
sS'RecMemTask.thisTrialN'
p167
I1
sg40
g41
sg43
I1
sg156
VStimuli/PL_056_TUFTS02BW.bmp
p168
sg46
I1
sg32
g33
sg19
I2000
sg60
g61
sg20
I16357
sg66
g11
sS'RecMemTask.thisRepN'
p169
I0
sg68
I01
sg71
g72
sg62
g63
sg18
I18351
sg54
I1
sg24
I18351
sg25
I500
sg26
I18851
sg84
g85
sg74
I0
sg159
g147
sg81
g63
sg99
I1
sa(dp170
g17
I18856
sg145
Voldneutface
p171
sg16
VOld
p172
sg44
g45
sg42
I1
sS'RecMemTask.thisN'
p173
I2
sg64
g65
sg47
g48
sg49
g50
sg51
I0
sg23
I20852
sg52
g53
sg55
g56
sg57
g58
sS'RecMemTask.thisIndex'
p174
g89
(g126
S'\x02\x00\x00\x00\x00\x00\x00\x00'
p175
tp176
Rp177
sg153
g154
sg14
g65
sg59
I0
sg67
I160
sg21
I20852
sg69
g70
sg73
I0
sg22
I0
sg75
g76
sg77
g78
sg28
I0
sg79
g80
sg27
I21351
sg82
I0
sg83
I00
sg15
I0
sg86
g87
sg88
g98
sS'RecMemTask.thisTrialN'
p178
I2
sg40
g41
sg43
I1
sg156
VStimuli/AM228_NC.bmp
p179
sg46
I1
sg32
g33
sg19
I2000
sg60
g61
sg20
I18856
sg66
g11
sS'RecMemTask.thisRepN'
p180
I0
sg68
I01
sg71
g72
sg62
g63
sg18
I20852
sg54
I1
sg24
I20852
sg25
I500
sg26
I21351
sg84
g85
sg74
I0
sg159
g172
sg81
g63
sg99
I1
sa(dp181
g17
I21355
sg145
Voldplace
p182
sg16
g172
sg44
g45
sg42
I1
sS'RecMemTask.thisN'
p183
I3
sg64
g65
sg47
g48
sg49
g50
sg51
I0
sg23
I23340
sg52
g53
sg55
g56
sg57
g58
sS'RecMemTask.thisIndex'
p184
g89
(g126
S'\x03\x00\x00\x00\x00\x00\x00\x00'
p185
tp186
Rp187
sg153
g154
sg14
g65
sg59
I0
sg67
I160
sg21
I23340
sg69
g70
sg73
I0
sg22
I0
sg75
g76
sg77
g78
sg28
I0
sg79
g80
sg27
I23852
sg82
I0
sg83
I00
sg15
I0
sg86
g87
sg88
g98
sS'RecMemTask.thisTrialN'
p188
I3
sg40
g41
sg43
I1
sg156
VStimuli/PL_001_92012.bmp
p189
sg46
I1
sg32
g33
sg19
I2000
sg60
g61
sg20
I21355
sg66
g11
sS'RecMemTask.thisRepN'
p190
I0
sg68
I01
sg71
g72
sg62
g63
sg18
I23340
sg54
I1
sg24
I23340
sg25
I500
sg26
I23851
sg84
g85
sg74
I0
sg159
g172
sg81
g63
sg99
I1
sa(dp191
g17
I23857
sg145
Vnewposface
p192
sg16
g147
sg44
g45
sg42
I1
sS'RecMemTask.thisN'
p193
I4
sg64
g65
sg47
g48
sg49
g50
sg51
I0
sg23
I25852
sg52
g53
sg55
g56
sg57
g58
sS'RecMemTask.thisIndex'
p194
g89
(g126
S'\x04\x00\x00\x00\x00\x00\x00\x00'
p195
tp196
Rp197
sg153
g154
sg14
g65
sg59
I0
sg67
I160
sg21
I25852
sg69
g70
sg73
I0
sg22
I0
sg75
g76
sg77
g78
sg28
I0
sg79
g80
sg27
I26351
sg82
I0
sg83
I00
sg15
I0
sg86
g87
sg88
g98
sS'RecMemTask.thisTrialN'
p198
I4
sg40
g41
sg43
I1
sg156
VStimuli/AM01_HO.bmp
p199
sg46
I1
sg32
g33
sg19
I2000
sg60
g61
sg20
I23857
sg66
g11
sS'RecMemTask.thisRepN'
p200
I0
sg68
I01
sg71
g72
sg62
g63
sg18
I25852
sg54
I1
sg24
I25853
sg25
I500
sg26
I26351
sg84
g85
sg74
I0
sg159
g147
sg81
g63
sg99
I1
sa(dp201
g17
I26355
sg145
g182
sg16
g172
sg44
g45
sg42
I1
sS'RecMemTask.thisN'
p202
I5
sg64
g65
sg47
g48
sg49
g50
sg51
I0
sg23
I28341
sg52
g53
sg55
g56
sg57
g58
sS'RecMemTask.thisIndex'
p203
g89
(g126
S'\x05\x00\x00\x00\x00\x00\x00\x00'
p204
tp205
Rp206
sg153
g154
sg14
g65
sg59
I0
sg67
I160
sg21
I28341
sg69
g70
sg73
I0
sg22
I0
sg75
g76
sg77
g78
sg28
I0
sg79
g80
sg27
I28841
sg82
I0
sg83
I00
sg15
I0
sg86
g87
sg88
g98
sS'RecMemTask.thisTrialN'
p207
I5
sg40
g41
sg43
I1
sg156
VStimuli/PL_009_92037.bmp
p208
sg46
I1
sg32
g33
sg19
I2000
sg60
g61
sg20
I26355
sg66
g11
sS'RecMemTask.thisRepN'
p209
I0
sg68
I01
sg71
g72
sg62
g63
sg18
I28341
sg54
I1
sg24
I28341
sg25
I500
sg26
I28841
sg84
g85
sg74
I0
sg159
g172
sg81
g63
sg99
I1
sa(dp210
g17
I28845
sg145
Voldnegface
p211
sg16
g172
sg44
g45
sg42
I1
sS'RecMemTask.thisN'
p212
I6
sg64
g65
sg47
g48
sg49
g50
sg51
I0
sg23
I30852
sg52
g53
sg55
g56
sg57
g58
sS'RecMemTask.thisIndex'
p213
g89
(g126
S'\x06\x00\x00\x00\x00\x00\x00\x00'
p214
tp215
Rp216
sg153
g154
sg14
g65
sg59
I0
sg67
I160
sg21
I30852
sg69
g70
sg73
I0
sg22
I0
sg75
g76
sg77
g78
sg28
I0
sg79
g80
sg27
I31352
sg82
I0
sg83
I00
sg15
I0
sg86
g87
sg88
g98
sS'RecMemTask.thisTrialN'
p217
I6
sg40
g41
sg43
I1
sg156
VStimuli/HM03_FO.bmp
p218
sg46
I1
sg32
g33
sg19
I2000
sg60
g61
sg20
I28845
sg66
g11
sS'RecMemTask.thisRepN'
p219
I0
sg68
I01
sg71
g72
sg62
g63
sg18
I30852
sg54
I1
sg24
I30852
sg25
I500
sg26
I31352
sg84
g85
sg74
I0
sg159
g172
sg81
g63
sg99
I1
sa(dp220
g17
I31357
sg145
Vnewnegface
p221
sg16
g147
sg44
g45
sg42
I1
sS'RecMemTask.thisN'
p222
I7
sg64
g65
sg47
g48
sg49
g50
sg51
I0
sg23
I33353
sg52
g53
sg55
g56
sg57
g58
sS'RecMemTask.thisIndex'
p223
g89
(g126
S'\x07\x00\x00\x00\x00\x00\x00\x00'
p224
tp225
Rp226
sg153
g154
sg14
g65
sg59
I0
sg67
I160
sg21
I33353
sg69
g70
sg73
I0
sg22
I0
sg75
g76
sg77
g78
sg28
I0
sg79
g80
sg27
I33854
sg82
I0
sg83
I00
sg15
I0
sg86
g87
sg88
g98
sS'RecMemTask.thisTrialN'
p227
I7
sg40
g41
sg43
I1
sg156
VStimuli/BF04_FO.bmp
p228
sg46
I1
sg32
g33
sg19
I2000
sg60
g61
sg20
I31358
sg66
g11
sS'RecMemTask.thisRepN'
p229
I0
sg68
I01
sg71
g72
sg62
g63
sg18
I33353
sg54
I1
sg24
I33353
sg25
I500
sg26
I33854
sg84
g85
sg74
I0
sg159
g147
sg81
g63
sg99
I1
sa(dp230
g17
I33857
sg145
g171
sg16
g172
sg44
g45
sg42
I1
sS'RecMemTask.thisN'
p231
I8
sg64
g65
sg47
g48
sg49
g50
sg51
I0
sg23
I35854
sg52
g53
sg55
g56
sg57
g58
sS'RecMemTask.thisIndex'
p232
g89
(g126
S'\x08\x00\x00\x00\x00\x00\x00\x00'
p233
tp234
Rp235
sg153
g154
sg14
g65
sg59
I0
sg67
I160
sg21
I35854
sg69
g70
sg73
I0
sg22
I0
sg75
g76
sg77
g78
sg28
I0
sg79
g80
sg27
I36339
sg82
I0
sg83
I00
sg15
I0
sg86
g87
sg88
g98
sS'RecMemTask.thisTrialN'
p236
I8
sg40
g41
sg43
I1
sg156
VStimuli/LF227_NC.bmp
p237
sg46
I1
sg32
g33
sg19
I2000
sg60
g61
sg20
I33857
sg66
g11
sS'RecMemTask.thisRepN'
p238
I0
sg68
I01
sg71
g72
sg62
g63
sg18
I35854
sg54
I1
sg24
I35854
sg25
I500
sg26
I36339
sg84
g85
sg74
I0
sg159
g172
sg81
g63
sg99
I1
sa(dp239
g17
I36344
sg145
Voldposface
p240
sg16
g172
sg44
g45
sg42
I1
sS'RecMemTask.thisN'
p241
I9
sg64
g65
sg47
g48
sg49
g50
sg51
I0
sg23
I38354
sg52
g53
sg55
g56
sg57
g58
sS'RecMemTask.thisIndex'
p242
g89
(g126
S'\t\x00\x00\x00\x00\x00\x00\x00'
p243
tp244
Rp245
sg153
g154
sg14
g65
sg59
I0
sg67
I160
sg21
I38354
sg69
g70
sg73
I0
sg22
I0
sg75
g76
sg77
g78
sg28
I0
sg79
g80
sg27
I38853
sg82
I0
sg83
I00
sg15
I0
sg86
g87
sg88
g98
sS'RecMemTask.thisTrialN'
p246
I9
sg40
g41
sg43
I1
sg156
VStimuli/12F_HO.bmp
p247
sg46
I1
sg32
g33
sg19
I2000
sg60
g61
sg20
I36345
sg66
g11
sS'RecMemTask.thisRepN'
p248
I0
sg68
I01
sg71
g72
sg62
g63
sg18
I38354
sg54
I1
sg24
I38354
sg25
I500
sg26
I38853
sg84
g85
sg74
I0
sg159
g172
sg81
g63
sg99
I1
sa(dp249
g17
I38857
sg145
g211
sg16
g172
sg44
g45
sg42
I1
sS'RecMemTask.thisN'
p250
I10
sg64
g65
sg47
g48
sg49
g50
sg51
I0
sg23
I40842
sg52
g53
sg55
g56
sg57
g58
sS'RecMemTask.thisIndex'
p251
g89
(g126
S'\n\x00\x00\x00\x00\x00\x00\x00'
p252
tp253
Rp254
sg153
g154
sg14
g65
sg59
I0
sg67
I160
sg21
I40842
sg69
g70
sg73
I0
sg22
I0
sg75
g76
sg77
g78
sg28
I0
sg79
g80
sg27
I41359
sg82
I0
sg83
I00
sg15
I0
sg86
g87
sg88
g98
sS'RecMemTask.thisTrialN'
p255
I10
sg40
g41
sg43
I1
sg156
VStimuli/9F_FO.bmp
p256
sg46
I1
sg32
g33
sg19
I2000
sg60
g61
sg20
I38858
sg66
g11
sS'RecMemTask.thisRepN'
p257
I0
sg68
I01
sg71
g72
sg62
g63
sg18
I40842
sg54
I1
sg24
I40842
sg25
I500
sg26
I41359
sg84
g85
sg74
I0
sg159
g172
sg81
g63
sg99
I1
sa(dp258
g17
I41362
sg145
g161
sg16
g147
sg44
g45
sg42
I1
sS'RecMemTask.thisN'
p259
I11
sg64
g65
sg47
g48
sg49
g50
sg51
I0
sg23
I43338
sg52
g53
sg55
g56
sg57
g58
sS'RecMemTask.thisIndex'
p260
g89
(g126
S'\x0b\x00\x00\x00\x00\x00\x00\x00'
p261
tp262
Rp263
sg153
g154
sg14
g65
sg59
I0
sg67
I160
sg21
I43338
sg69
g70
sg73
I0
sg22
I0
sg75
g76
sg77
g78
sg28
I0
sg79
g80
sg27
I43838
sg82
I0
sg83
I00
sg15
I0
sg86
g87
sg88
g98
sS'RecMemTask.thisTrialN'
p264
I11
sg40
g41
sg43
I1
sg156
VStimuli/PL_058_TUFTS07BW.bmp
p265
sg46
I1
sg32
g33
sg19
I2000
sg60
g61
sg20
I41362
sg66
g11
sS'RecMemTask.thisRepN'
p266
I0
sg68
I01
sg71
g72
sg62
g63
sg18
I43338
sg54
I1
sg24
I43338
sg25
I500
sg26
I43838
sg84
g85
sg74
I0
sg159
g147
sg81
g63
sg99
I1
sa(dp267
g17
I43844
sg145
g240
sg16
g172
sg44
g45
sg42
I1
sS'RecMemTask.thisN'
p268
I12
sg64
g65
sg47
g48
sg49
g50
sg51
I0
sg23
I45839
sg52
g53
sg55
g56
sg57
g58
sS'RecMemTask.thisIndex'
p269
g89
(g126
S'\x0c\x00\x00\x00\x00\x00\x00\x00'
p270
tp271
Rp272
sg153
g154
sg14
g65
sg59
I0
sg67
I160
sg21
I45839
sg69
g70
sg73
I0
sg22
I0
sg75
g76
sg77
g78
sg28
I0
sg79
g80
sg27
I46339
sg82
I0
sg83
I00
sg15
I0
sg86
g87
sg88
g98
sS'RecMemTask.thisTrialN'
p273
I12
sg40
g41
sg43
I1
sg156
VStimuli/34M_HO.bmp
p274
sg46
I1
sg32
g33
sg19
I2000
sg60
g61
sg20
I43844
sg66
g11
sS'RecMemTask.thisRepN'
p275
I0
sg68
I01
sg71
g72
sg62
g63
sg18
I45839
sg54
I1
sg24
I45839
sg25
I500
sg26
I46339
sg84
g85
sg74
I0
sg159
g172
sg81
g63
sg99
I1
sa(dp276
g17
I46343
sg145
g221
sg16
g147
sg44
g45
sg42
I1
sS'RecMemTask.thisN'
p277
I13
sg64
g65
sg47
g48
sg49
g50
sg51
I0
sg23
I48355
sg52
g53
sg55
g56
sg57
g58
sS'RecMemTask.thisIndex'
p278
g89
(g126
S'\r\x00\x00\x00\x00\x00\x00\x00'
p279
tp280
Rp281
sg153
g154
sg14
g65
sg59
I0
sg67
I160
sg21
I48355
sg69
g70
sg73
I0
sg22
I0
sg75
g76
sg77
g78
sg28
I0
sg79
g80
sg27
I48842
sg82
I0
sg83
I00
sg15
I0
sg86
g87
sg88
g98
sS'RecMemTask.thisTrialN'
p282
I13
sg40
g41
sg43
I1
sg156
VStimuli/WM033_FO.bmp
p283
sg46
I1
sg32
g33
sg19
I2000
sg60
g61
sg20
I46345
sg66
g11
sS'RecMemTask.thisRepN'
p284
I0
sg68
I01
sg71
g72
sg62
g63
sg18
I48355
sg54
I1
sg24
I48355
sg25
I500
sg26
I48842
sg84
g85
sg74
I0
sg159
g147
sg81
g63
sg99
I1
sa(dp285
g17
I48847
sg145
g192
sg16
g147
sg44
g45
sg42
I1
sS'RecMemTask.thisN'
p286
I14
sg64
g65
sg47
g48
sg49
g50
sg51
I0
sg23
I50839
sg52
g53
sg55
g56
sg57
g58
sS'RecMemTask.thisIndex'
p287
g89
(g126
S'\x0e\x00\x00\x00\x00\x00\x00\x00'
p288
tp289
Rp290
sg153
g154
sg14
g65
sg59
I0
sg67
I160
sg21
I50839
sg69
g70
sg73
I0
sg22
I0
sg75
g76
sg77
g78
sg28
I0
sg79
g80
sg27
I51338
sg82
I0
sg83
I00
sg15
I0
sg86
g87
sg88
g98
sS'RecMemTask.thisTrialN'
p291
I14
sg40
g41
sg43
I1
sg156
VStimuli/BF005_HO.bmp
p292
sg46
I1
sg32
g33
sg19
I2000
sg60
g61
sg20
I48847
sg66
g11
sS'RecMemTask.thisRepN'
p293
I0
sg68
I01
sg71
g72
sg62
g63
sg18
I50839
sg54
I1
sg24
I50839
sg25
I500
sg26
I51338
sg84
g85
sg74
I0
sg159
g147
sg81
g63
sg99
I1
sa(dp294
g17
I51342
sg145
g146
sg16
g147
sg44
g45
sg42
I1
sS'RecMemTask.thisN'
p295
I15
sg64
g65
sg47
g48
sg49
g50
sg51
I0
sg23
I53339
sg52
g53
sg55
g56
sg57
g58
sS'RecMemTask.thisIndex'
p296
g89
(g126
S'\x0f\x00\x00\x00\x00\x00\x00\x00'
p297
tp298
Rp299
sg153
g154
sg14
g65
sg59
I0
sg67
I160
sg21
I53339
sg69
g70
sg73
I0
sg22
I0
sg75
g76
sg77
g78
sg28
I0
sg79
g80
sg27
I53838
sg82
I0
sg83
I00
sg15
I0
sg86
g87
sg88
g98
sS'RecMemTask.thisTrialN'
p300
I15
sg40
g41
sg43
I1
sg156
VStimuli/LM216_NC.bmp
p301
sg46
I1
sg32
g33
sg19
I2000
sg60
g61
sg20
I51343
sg66
g11
sS'RecMemTask.thisRepN'
p302
I0
sg68
I01
sg71
g72
sg62
g63
sg18
I53339
sg54
I1
sg24
I53339
sg25
I500
sg26
I53838
sg84
g85
sg74
I0
sg159
g147
sg81
g63
sg99
I1
sa(dp303
g17
I53843
sg145
g146
sg16
g147
sg44
g45
sg42
I1
sS'RecMemTask.thisN'
p304
I16
sg64
g65
sg47
g48
sg49
g50
sg51
I0
sg23
I55840
sg52
g53
sg55
g56
sg57
g58
sS'RecMemTask.thisIndex'
p305
g89
(g126
S'\x10\x00\x00\x00\x00\x00\x00\x00'
p306
tp307
Rp308
sg153
g154
sg14
g65
sg59
I0
sg67
I160
sg21
I55840
sg69
g70
sg73
I0
sg22
I0
sg75
g76
sg77
g78
sg28
I0
sg79
g80
sg27
I56340
sg82
I0
sg83
I00
sg15
I0
sg86
g87
sg88
g98
sS'RecMemTask.thisTrialN'
p309
I16
sg40
g41
sg43
I1
sg156
VStimuli/WF01_NC.bmp
p310
sg46
I1
sg32
g33
sg19
I2000
sg60
g61
sg20
I53843
sg66
g11
sS'RecMemTask.thisRepN'
p311
I0
sg68
I01
sg71
g72
sg62
g63
sg18
I55840
sg54
I1
sg24
I55840
sg25
I500
sg26
I56340
sg84
g85
sg74
I0
sg159
g147
sg81
g63
sg99
I1
sa(dp312
g17
I56344
sg145
g161
sg16
g147
sg44
g45
sg42
I1
sS'RecMemTask.thisN'
p313
I17
sg64
g65
sg47
g48
sg49
g50
sg51
I0
sg23
I58339
sg52
g53
sg55
g56
sg57
g58
sS'RecMemTask.thisIndex'
p314
g89
(g126
S'\x11\x00\x00\x00\x00\x00\x00\x00'
p315
tp316
Rp317
sg153
g154
sg14
g65
sg59
I0
sg67
I160
sg21
I58339
sg69
g70
sg73
I0
sg22
I0
sg75
g76
sg77
g78
sg28
I0
sg79
g80
sg27
I58839
sg82
I0
sg83
I00
sg15
I0
sg86
g87
sg88
g98
sS'RecMemTask.thisTrialN'
p318
I17
sg40
g41
sg43
I1
sg156
VStimuli/PL_060_TUFTS10BW.bmp
p319
sg46
I1
sg32
g33
sg19
I2000
sg60
g61
sg20
I56344
sg66
g11
sS'RecMemTask.thisRepN'
p320
I0
sg68
I01
sg71
g72
sg62
g63
sg18
I58339
sg54
I1
sg24
I58339
sg25
I500
sg26
I58839
sg84
g85
sg74
I0
sg159
g147
sg81
g63
sg99
I1
sa(dp321
g17
I58842
sg145
g182
sg16
g172
sg44
g45
sg42
I1
sS'RecMemTask.thisN'
p322
I18
sg64
g65
sg47
g48
sg49
g50
sg51
I0
sg23
I60840
sg52
g53
sg55
g56
sg57
g58
sS'RecMemTask.thisIndex'
p323
g89
(g126
S'\x12\x00\x00\x00\x00\x00\x00\x00'
p324
tp325
Rp326
sg153
g154
sg14
g65
sg59
I0
sg67
I160
sg21
I60840
sg69
g70
sg73
I0
sg22
I0
sg75
g76
sg77
g78
sg28
I0
sg79
g80
sg27
I61340
sg82
I0
sg83
I00
sg15
I0
sg86
g87
sg88
g98
sS'RecMemTask.thisTrialN'
p327
I18
sg40
g41
sg43
I1
sg156
VStimuli/PL_010_92038.bmp
p328
sg46
I1
sg32
g33
sg19
I2000
sg60
g61
sg20
I58843
sg66
g11
sS'RecMemTask.thisRepN'
p329
I0
sg68
I01
sg71
g72
sg62
g63
sg18
I60840
sg54
I1
sg24
I60840
sg25
I500
sg26
I61340
sg84
g85
sg74
I0
sg159
g172
sg81
g63
sg99
I1
sa(dp330
g17
I61345
sg145
g192
sg16
g147
sg44
g45
sg42
I1
sS'RecMemTask.thisN'
p331
I19
sg64
g65
sg47
g48
sg49
g50
sg51
I0
sg23
I63344
sg52
g53
sg55
g56
sg57
g58
sS'RecMemTask.thisIndex'
p332
g89
(g126
S'\x13\x00\x00\x00\x00\x00\x00\x00'
p333
tp334
Rp335
sg153
g154
sg14
g65
sg59
I0
sg67
I160
sg21
I63344
sg69
g70
sg73
I0
sg22
I0
sg75
g76
sg77
g78
sg28
I0
sg79
g80
sg27
I63840
sg82
I0
sg83
I00
sg15
I0
sg86
g87
sg88
g98
sS'RecMemTask.thisTrialN'
p336
I19
sg40
g41
sg43
I1
sg156
VStimuli/BM002_HO.bmp
p337
sg46
I1
sg32
g33
sg19
I2000
sg60
g61
sg20
I61345
sg66
g11
sS'RecMemTask.thisRepN'
p338
I0
sg68
I01
sg71
g72
sg62
g63
sg18
I63344
sg54
I1
sg24
I63344
sg25
I500
sg26
I63840
sg84
g85
sg74
I0
sg159
g147
sg81
g63
sg99
I1
sa(dp339
g17
I63845
sg145
g221
sg16
g147
sg44
g45
sg42
I1
sS'RecMemTask.thisN'
p340
I20
sg64
g65
sg47
g48
sg49
g50
sg51
I0
sg23
I65843
sg52
g53
sg55
g56
sg57
g58
sS'RecMemTask.thisIndex'
p341
g89
(g126
S'\x14\x00\x00\x00\x00\x00\x00\x00'
p342
tp343
Rp344
sg153
g154
sg14
g65
sg59
I0
sg67
I160
sg21
I65843
sg69
g70
sg73
I0
sg22
I0
sg75
g76
sg77
g78
sg28
I0
sg79
g80
sg27
I66341
sg82
I0
sg83
I00
sg15
I0
sg86
g87
sg88
g98
sS'RecMemTask.thisTrialN'
p345
I20
sg40
g41
sg43
I1
sg156
VStimuli/OM01_FO.bmp
p346
sg46
I1
sg32
g33
sg19
I2000
sg60
g61
sg20
I63845
sg66
g11
sS'RecMemTask.thisRepN'
p347
I0
sg68
I01
sg71
g72
sg62
g63
sg18
I65843
sg54
I1
sg24
I65843
sg25
I500
sg26
I66340
sg84
g85
sg74
I0
sg159
g147
sg81
g63
sg99
I1
sa(dp348
g17
I66346
sg145
g211
sg16
g172
sg44
g45
sg42
I1
sS'RecMemTask.thisN'
p349
I21
sg64
g65
sg47
g48
sg49
g50
sg51
I0
sg23
I68340
sg52
g53
sg55
g56
sg57
g58
sS'RecMemTask.thisIndex'
p350
g89
(g126
S'\x15\x00\x00\x00\x00\x00\x00\x00'
p351
tp352
Rp353
sg153
g154
sg14
g65
sg59
I0
sg67
I160
sg21
I68340
sg69
g70
sg73
I0
sg22
I0
sg75
g76
sg77
g78
sg28
I0
sg79
g80
sg27
I68841
sg82
I0
sg83
I00
sg15
I0
sg86
g87
sg88
g98
sS'RecMemTask.thisTrialN'
p354
I21
sg40
g41
sg43
I1
sg156
VStimuli/39M_FO.bmp
p355
sg46
I1
sg32
g33
sg19
I2000
sg60
g61
sg20
I66346
sg66
g11
sS'RecMemTask.thisRepN'
p356
I0
sg68
I01
sg71
g72
sg62
g63
sg18
I68340
sg54
I1
sg24
I68340
sg25
I500
sg26
I68841
sg84
g85
sg74
I0
sg159
g172
sg81
g63
sg99
I1
sa(dp357
g17
I68846
sg145
g211
sg16
g172
sg44
g45
sg42
I1
sS'RecMemTask.thisN'
p358
I22
sg64
g65
sg47
g48
sg49
g50
sg51
I0
sg23
I70842
sg52
g53
sg55
g56
sg57
g58
sS'RecMemTask.thisIndex'
p359
g89
(g126
S'\x16\x00\x00\x00\x00\x00\x00\x00'
p360
tp361
Rp362
sg153
g154
sg14
g65
sg59
I0
sg67
I160
sg21
I70842
sg69
g70
sg73
I0
sg22
I0
sg75
g76
sg77
g78
sg28
I0
sg79
g80
sg27
I71341
sg82
I0
sg83
I00
sg15
I0
sg86
g87
sg88
g98
sS'RecMemTask.thisTrialN'
p363
I22
sg40
g41
sg43
I1
sg156
VStimuli/BM045_FO.bmp
p364
sg46
I1
sg32
g33
sg19
I2000
sg60
g61
sg20
I68847
sg66
g11
sS'RecMemTask.thisRepN'
p365
I0
sg68
I01
sg71
g72
sg62
g63
sg18
I70842
sg54
I1
sg24
I70842
sg25
I500
sg26
I71341
sg84
g85
sg74
I0
sg159
g172
sg81
g63
sg99
I1
sa(dp366
g17
I71346
sg145
g240
sg16
g172
sg44
g45
sg42
I1
sS'RecMemTask.thisN'
p367
I23
sg64
g65
sg47
g48
sg49
g50
sg51
I0
sg23
I73342
sg52
g53
sg55
g56
sg57
g58
sS'RecMemTask.thisIndex'
p368
g89
(g126
S'\x17\x00\x00\x00\x00\x00\x00\x00'
p369
tp370
Rp371
sg153
g154
sg14
g65
sg59
I0
sg67
I160
sg21
I73342
sg69
g70
sg73
I0
sg22
I0
sg75
g76
sg77
g78
sg28
I0
sg79
g80
sg27
I73841
sg82
I0
sg83
I00
sg15
I0
sg86
g87
sg88
g98
sS'RecMemTask.thisTrialN'
p372
I23
sg40
g41
sg43
I1
sg156
VStimuli/BF037_HO.bmp
p373
sg46
I1
sg32
g33
sg19
I2000
sg60
g61
sg20
I71347
sg66
g11
sS'RecMemTask.thisRepN'
p374
I0
sg68
I01
sg71
g72
sg62
g63
sg18
I73342
sg54
I1
sg24
I73342
sg25
I500
sg26
I73841
sg84
g85
sg74
I0
sg159
g172
sg81
g63
sg99
I1
sa(dp375
g17
I73845
sg145
g146
sg16
g147
sg44
g45
sg42
I1
sS'RecMemTask.thisN'
p376
I24
sg64
g65
sg47
g48
sg49
g50
sg51
I0
sg23
I75843
sg52
g53
sg55
g56
sg57
g58
sS'RecMemTask.thisIndex'
p377
g89
(g126
S'\x18\x00\x00\x00\x00\x00\x00\x00'
p378
tp379
Rp380
sg153
g154
sg14
g65
sg59
I0
sg67
I160
sg21
I75843
sg69
g70
sg73
I0
sg22
I0
sg75
g76
sg77
g78
sg28
I0
sg79
g80
sg27
I76342
sg82
I0
sg83
I00
sg15
I0
sg86
g87
sg88
g98
sS'RecMemTask.thisTrialN'
p381
I24
sg40
g41
sg43
I1
sg156
VStimuli/AM245_NC.bmp
p382
sg46
I1
sg32
g33
sg19
I2000
sg60
g61
sg20
I73845
sg66
g11
sS'RecMemTask.thisRepN'
p383
I0
sg68
I01
sg71
g72
sg62
g63
sg18
I75843
sg54
I1
sg24
I75843
sg25
I500
sg26
I76341
sg84
g85
sg74
I0
sg159
g147
sg81
g63
sg99
I1
sa(dp384
g17
I76345
sg145
g171
sg16
g172
sg44
g45
sg42
I1
sS'RecMemTask.thisN'
p385
I25
sg64
g65
sg47
g48
sg49
g50
sg51
I0
sg23
I78342
sg52
g53
sg55
g56
sg57
g58
sS'RecMemTask.thisIndex'
p386
g89
(g126
S'\x19\x00\x00\x00\x00\x00\x00\x00'
p387
tp388
Rp389
sg153
g154
sg14
g65
sg59
I0
sg67
I160
sg21
I78342
sg69
g70
sg73
I0
sg22
I0
sg75
g76
sg77
g78
sg28
I0
sg79
g80
sg27
I78842
sg82
I0
sg83
I00
sg15
I0
sg86
g87
sg88
g98
sS'RecMemTask.thisTrialN'
p390
I25
sg40
g41
sg43
I1
sg156
VStimuli/AF218_NC.bmp
p391
sg46
I1
sg32
g33
sg19
I2000
sg60
g61
sg20
I76345
sg66
g11
sS'RecMemTask.thisRepN'
p392
I0
sg68
I01
sg71
g72
sg62
g63
sg18
I78342
sg54
I1
sg24
I78342
sg25
I500
sg26
I78842
sg84
g85
sg74
I0
sg159
g172
sg81
g63
sg99
I1
sa(dp393
g17
I78848
sg145
g221
sg16
g147
sg44
g45
sg42
I1
sS'RecMemTask.thisN'
p394
I26
sg64
g65
sg47
g48
sg49
g50
sg51
I0
sg23
I80843
sg52
g53
sg55
g56
sg57
g58
sS'RecMemTask.thisIndex'
p395
g89
(g126
S'\x1a\x00\x00\x00\x00\x00\x00\x00'
p396
tp397
Rp398
sg153
g154
sg14
g65
sg59
I0
sg67
I160
sg21
I80843
sg69
g70
sg73
I0
sg22
I0
sg75
g76
sg77
g78
sg28
I0
sg79
g80
sg27
I81342
sg82
I0
sg83
I00
sg15
I0
sg86
g87
sg88
g98
sS'RecMemTask.thisTrialN'
p399
I26
sg40
g41
sg43
I1
sg156
VStimuli/AF03_FO.bmp
p400
sg46
I1
sg32
g33
sg19
I2000
sg60
g61
sg20
I78848
sg66
g11
sS'RecMemTask.thisRepN'
p401
I0
sg68
I01
sg71
g72
sg62
g63
sg18
I80843
sg54
I1
sg24
I80843
sg25
I500
sg26
I81342
sg84
g85
sg74
I0
sg159
g147
sg81
g63
sg99
I1
sa(dp402
g17
I81348
sg145
g161
sg16
g147
sg44
g45
sg42
I1
sS'RecMemTask.thisN'
p403
I27
sg64
g65
sg47
g48
sg49
g50
sg51
I0
sg23
I83344
sg52
g53
sg55
g56
sg57
g58
sS'RecMemTask.thisIndex'
p404
g89
(g126
S'\x1b\x00\x00\x00\x00\x00\x00\x00'
p405
tp406
Rp407
sg153
g154
sg14
g65
sg59
I0
sg67
I160
sg21
I83344
sg69
g70
sg73
I0
sg22
I0
sg75
g76
sg77
g78
sg28
I0
sg79
g80
sg27
I83843
sg82
I0
sg83
I00
sg15
I0
sg86
g87
sg88
g98
sS'RecMemTask.thisTrialN'
p408
I27
sg40
g41
sg43
I1
sg156
VStimuli/PL_061_TUFTS11BW.bmp
p409
sg46
I1
sg32
g33
sg19
I2000
sg60
g61
sg20
I81348
sg66
g11
sS'RecMemTask.thisRepN'
p410
I0
sg68
I01
sg71
g72
sg62
g63
sg18
I83344
sg54
I1
sg24
I83344
sg25
I500
sg26
I83843
sg84
g85
sg74
I0
sg159
g147
sg81
g63
sg99
I1
sa(dp411
g17
I83849
sg145
g182
sg16
g172
sg44
g45
sg42
I1
sS'RecMemTask.thisN'
p412
I28
sg64
g65
sg47
g48
sg49
g50
sg51
I0
sg23
I85844
sg52
g53
sg55
g56
sg57
g58
sS'RecMemTask.thisIndex'
p413
g89
(g126
S'\x1c\x00\x00\x00\x00\x00\x00\x00'
p414
tp415
Rp416
sg153
g154
sg14
g65
sg59
I0
sg67
I160
sg21
I85844
sg69
g70
sg73
I0
sg22
I0
sg75
g76
sg77
g78
sg28
I0
sg79
g80
sg27
I86343
sg82
I0
sg83
I00
sg15
I0
sg86
g87
sg88
g98
sS'RecMemTask.thisTrialN'
p417
I28
sg40
g41
sg43
I1
sg156
VStimuli/PL_003_92016.bmp
p418
sg46
I1
sg32
g33
sg19
I2000
sg60
g61
sg20
I83849
sg66
g11
sS'RecMemTask.thisRepN'
p419
I0
sg68
I01
sg71
g72
sg62
g63
sg18
I85844
sg54
I1
sg24
I85844
sg25
I500
sg26
I86343
sg84
g85
sg74
I0
sg159
g172
sg81
g63
sg99
I1
sa(dp420
g17
I86348
sg145
g192
sg16
g147
sg44
g45
sg42
I1
sS'RecMemTask.thisN'
p421
I29
sg64
g65
sg47
g48
sg49
g50
sg51
I0
sg23
I88343
sg52
g53
sg55
g56
sg57
g58
sS'RecMemTask.thisIndex'
p422
g89
(g126
S'\x1d\x00\x00\x00\x00\x00\x00\x00'
p423
tp424
Rp425
sg153
g154
sg14
g65
sg59
I0
sg67
I160
sg21
I88343
sg69
g70
sg73
I0
sg22
I0
sg75
g76
sg77
g78
sg28
I0
sg79
g80
sg27
I88843
sg82
I0
sg83
I00
sg15
I0
sg86
g87
sg88
g98
sS'RecMemTask.thisTrialN'
p426
I29
sg40
g41
sg43
I1
sg156
VStimuli/HF03_HO.bmp
p427
sg46
I1
sg32
g33
sg19
I2000
sg60
g61
sg20
I86348
sg66
g11
sS'RecMemTask.thisRepN'
p428
I0
sg68
I01
sg71
g72
sg62
g63
sg18
I88343
sg54
I1
sg24
I88344
sg25
I500
sg26
I88843
sg84
g85
sg74
I0
sg159
g147
sg81
g63
sg99
I1
sa(dp429
g17
I88848
sg145
g171
sg16
g172
sg44
g45
sg42
I1
sS'RecMemTask.thisN'
p430
I30
sg64
g65
sg47
g48
sg49
g50
sg51
I0
sg23
I90843
sg52
g53
sg55
g56
sg57
g58
sS'RecMemTask.thisIndex'
p431
g89
(g126
S'\x1e\x00\x00\x00\x00\x00\x00\x00'
p432
tp433
Rp434
sg153
g154
sg14
g65
sg59
I0
sg67
I160
sg21
I90843
sg69
g70
sg73
I0
sg22
I0
sg75
g76
sg77
g78
sg28
I0
sg79
g80
sg27
I91343
sg82
I0
sg83
I00
sg15
I0
sg86
g87
sg88
g98
sS'RecMemTask.thisTrialN'
p435
I30
sg40
g41
sg43
I1
sg156
VStimuli/42M_NC.bmp
p436
sg46
I1
sg32
g33
sg19
I2000
sg60
g61
sg20
I88848
sg66
g11
sS'RecMemTask.thisRepN'
p437
I0
sg68
I01
sg71
g72
sg62
g63
sg18
I90843
sg54
I1
sg24
I90843
sg25
I500
sg26
I91343
sg84
g85
sg74
I0
sg159
g172
sg81
g63
sg99
I1
sa(dp438
g17
I91348
sg145
g240
sg16
g172
sg44
g45
sg42
I1
sS'RecMemTask.thisN'
p439
I31
sg64
g65
sg47
g48
sg49
g50
sg51
I0
sg23
I93344
sg52
g53
sg55
g56
sg57
g58
sS'RecMemTask.thisIndex'
p440
g89
(g126
S'\x1f\x00\x00\x00\x00\x00\x00\x00'
p441
tp442
Rp443
sg153
g154
sg14
g65
sg59
I0
sg67
I160
sg21
I93344
sg69
g70
sg73
I0
sg22
I0
sg75
g76
sg77
g78
sg28
I0
sg79
g80
sg27
I93843
sg82
I0
sg83
I00
sg15
I0
sg86
g87
sg88
g98
sS'RecMemTask.thisTrialN'
p444
I31
sg40
g41
sg43
I1
sg156
VStimuli/WM011_HO.bmp
p445
sg46
I1
sg32
g33
sg19
I2000
sg60
g61
sg20
I91349
sg66
g11
sS'RecMemTask.thisRepN'
p446
I0
sg68
I01
sg71
g72
sg62
g63
sg18
I93344
sg54
I1
sg24
I93344
sg25
I500
sg26
I93843
sg84
g85
sg74
I0
sg159
g172
sg81
g63
sg99
I1
sa(dp447
g17
I93848
sg145
g182
sg16
g172
sg44
g45
sg42
I1
sS'RecMemTask.thisN'
p448
I32
sg64
g65
sg47
g48
sg49
g50
sg51
I0
sg23
I95844
sg52
g53
sg55
g56
sg57
g58
sS'RecMemTask.thisIndex'
p449
g89
(g126
S' \x00\x00\x00\x00\x00\x00\x00'
p450
tp451
Rp452
sg153
g154
sg14
g65
sg59
I0
sg67
I160
sg21
I95844
sg69
g70
sg73
I0
sg22
I0
sg75
g76
sg77
g78
sg28
I0
sg79
g80
sg27
I96344
sg82
I0
sg83
I00
sg15
I0
sg86
g87
sg88
g98
sS'RecMemTask.thisTrialN'
p453
I32
sg40
g41
sg43
I1
sg156
VStimuli/PL_006_92025.bmp
p454
sg46
I1
sg32
g33
sg19
I2000
sg60
g61
sg20
I93849
sg66
g11
sS'RecMemTask.thisRepN'
p455
I0
sg68
I01
sg71
g72
sg62
g63
sg18
I95844
sg54
I1
sg24
I95844
sg25
I500
sg26
I96344
sg84
g85
sg74
I0
sg159
g172
sg81
g63
sg99
I1
sa(dp456
g17
I96350
sg145
g211
sg16
g172
sg44
g45
sg42
I1
sS'RecMemTask.thisN'
p457
I33
sg64
g65
sg47
g48
sg49
g50
sg51
I0
sg23
I98344
sg52
g53
sg55
g56
sg57
g58
sS'RecMemTask.thisIndex'
p458
g89
(g126
S'!\x00\x00\x00\x00\x00\x00\x00'
p459
tp460
Rp461
sg153
g154
sg14
g65
sg59
I0
sg67
I160
sg21
I98344
sg69
g70
sg73
I0
sg22
I0
sg75
g76
sg77
g78
sg28
I0
sg79
g80
sg27
I98844
sg82
I0
sg83
I00
sg15
I0
sg86
g87
sg88
g98
sS'RecMemTask.thisTrialN'
p462
I33
sg40
g41
sg43
I1
sg156
VStimuli/BF003_FO.bmp
p463
sg46
I1
sg32
g33
sg19
I2000
sg60
g61
sg20
I96350
sg66
g11
sS'RecMemTask.thisRepN'
p464
I0
sg68
I01
sg71
g72
sg62
g63
sg18
I98344
sg54
I1
sg24
I98344
sg25
I500
sg26
I98844
sg84
g85
sg74
I0
sg159
g172
sg81
g63
sg99
I1
sa(dp465
g17
I98849
sg145
g146
sg16
g147
sg44
g45
sg42
I1
sS'RecMemTask.thisN'
p466
I34
sg64
g65
sg47
g48
sg49
g50
sg51
I0
sg23
I100844
sg52
g53
sg55
g56
sg57
g58
sS'RecMemTask.thisIndex'
p467
g89
(g126
S'"\x00\x00\x00\x00\x00\x00\x00'
p468
tp469
Rp470
sg153
g154
sg14
g65
sg59
I0
sg67
I160
sg21
I100844
sg69
g70
sg73
I0
sg22
I0
sg75
g76
sg77
g78
sg28
I0
sg79
g80
sg27
I101345
sg82
I0
sg83
I00
sg15
I0
sg86
g87
sg88
g98
sS'RecMemTask.thisTrialN'
p471
I34
sg40
g41
sg43
I1
sg156
VStimuli/21M_NC.bmp
p472
sg46
I1
sg32
g33
sg19
I2000
sg60
g61
sg20
I98850
sg66
g11
sS'RecMemTask.thisRepN'
p473
I0
sg68
I01
sg71
g72
sg62
g63
sg18
I100844
sg54
I1
sg24
I100844
sg25
I500
sg26
I101345
sg84
g85
sg74
I0
sg159
g147
sg81
g63
sg99
I1
sa(dp474
g17
I101350
sg145
g161
sg16
g147
sg44
g45
sg42
I1
sS'RecMemTask.thisN'
p475
I35
sg64
g65
sg47
g48
sg49
g50
sg51
I0
sg23
I103345
sg52
g53
sg55
g56
sg57
g58
sS'RecMemTask.thisIndex'
p476
g89
(g126
S'#\x00\x00\x00\x00\x00\x00\x00'
p477
tp478
Rp479
sg153
g154
sg14
g65
sg59
I0
sg67
I160
sg21
I103345
sg69
g70
sg73
I0
sg22
I0
sg75
g76
sg77
g78
sg28
I0
sg79
g80
sg27
I103845
sg82
I0
sg83
I00
sg15
I0
sg86
g87
sg88
g98
sS'RecMemTask.thisTrialN'
p480
I35
sg40
g41
sg43
I1
sg156
VStimuli/PL_051_SCENE08.bmp
p481
sg46
I1
sg32
g33
sg19
I2000
sg60
g61
sg20
I101350
sg66
g11
sS'RecMemTask.thisRepN'
p482
I0
sg68
I01
sg71
g72
sg62
g63
sg18
I103345
sg54
I1
sg24
I103345
sg25
I500
sg26
I103845
sg84
g85
sg74
I0
sg159
g147
sg81
g63
sg99
I1
sa(dp483
g17
I103850
sg145
g221
sg16
g147
sg44
g45
sg42
I1
sS'RecMemTask.thisN'
p484
I36
sg64
g65
sg47
g48
sg49
g50
sg51
I0
sg23
I105845
sg52
g53
sg55
g56
sg57
g58
sS'RecMemTask.thisIndex'
p485
g89
(g126
S'$\x00\x00\x00\x00\x00\x00\x00'
p486
tp487
Rp488
sg153
g154
sg14
g65
sg59
I0
sg67
I160
sg21
I105845
sg69
g70
sg73
I0
sg22
I0
sg75
g76
sg77
g78
sg28
I0
sg79
g80
sg27
I106345
sg82
I0
sg83
I00
sg15
I0
sg86
g87
sg88
g98
sS'RecMemTask.thisTrialN'
p489
I36
sg40
g41
sg43
I1
sg156
VStimuli/37M_FO.bmp
p490
sg46
I1
sg32
g33
sg19
I2000
sg60
g61
sg20
I103850
sg66
g11
sS'RecMemTask.thisRepN'
p491
I0
sg68
I01
sg71
g72
sg62
g63
sg18
I105845
sg54
I1
sg24
I105845
sg25
I500
sg26
I106345
sg84
g85
sg74
I0
sg159
g147
sg81
g63
sg99
I1
sa(dp492
g17
I106350
sg145
g211
sg16
g172
sg44
g45
sg42
I1
sS'RecMemTask.thisN'
p493
I37
sg64
g65
sg47
g48
sg49
g50
sg51
I0
sg23
I108345
sg52
g53
sg55
g56
sg57
g58
sS'RecMemTask.thisIndex'
p494
g89
(g126
S'%\x00\x00\x00\x00\x00\x00\x00'
p495
tp496
Rp497
sg153
g154
sg14
g65
sg59
I0
sg67
I160
sg21
I108345
sg69
g70
sg73
I0
sg22
I0
sg75
g76
sg77
g78
sg28
I0
sg79
g80
sg27
I108865
sg82
I0
sg83
I00
sg15
I0
sg86
g87
sg88
g98
sS'RecMemTask.thisTrialN'
p498
I37
sg40
g41
sg43
I1
sg156
VStimuli/10F_FO.bmp
p499
sg46
I1
sg32
g33
sg19
I2000
sg60
g61
sg20
I106350
sg66
g11
sS'RecMemTask.thisRepN'
p500
I0
sg68
I01
sg71
g72
sg62
g63
sg18
I108345
sg54
I1
sg24
I108345
sg25
I500
sg26
I108865
sg84
g85
sg74
I0
sg159
g172
sg81
g63
sg99
I1
sa(dp501
g17
I108870
sg145
g240
sg16
g172
sg44
g45
sg42
I1
sS'RecMemTask.thisN'
p502
I38
sg64
g65
sg47
g48
sg49
g50
sg51
I0
sg23
I110845
sg52
g53
sg55
g56
sg57
g58
sS'RecMemTask.thisIndex'
p503
g89
(g126
S'&\x00\x00\x00\x00\x00\x00\x00'
p504
tp505
Rp506
sg153
g154
sg14
g65
sg59
I0
sg67
I160
sg21
I110845
sg69
g70
sg73
I0
sg22
I0
sg75
g76
sg77
g78
sg28
I0
sg79
g80
sg27
I111346
sg82
I0
sg83
I00
sg15
I0
sg86
g87
sg88
g98
sS'RecMemTask.thisTrialN'
p507
I38
sg40
g41
sg43
I1
sg156
VStimuli/BF002_HO.bmp
p508
sg46
I1
sg32
g33
sg19
I2000
sg60
g61
sg20
I108870
sg66
g11
sS'RecMemTask.thisRepN'
p509
I0
sg68
I01
sg71
g72
sg62
g63
sg18
I110845
sg54
I1
sg24
I110845
sg25
I500
sg26
I111345
sg84
g85
sg74
I0
sg159
g172
sg81
g63
sg99
I1
sa(dp510
g17
I111350
sg145
g161
sg16
g147
sg44
g45
sg42
I1
sS'RecMemTask.thisN'
p511
I39
sg64
g65
sg47
g48
sg49
g50
sg51
I0
sg23
I113346
sg52
g53
sg55
g56
sg57
g58
sS'RecMemTask.thisIndex'
p512
g89
(g126
S"'\x00\x00\x00\x00\x00\x00\x00"
p513
tp514
Rp515
sg153
g154
sg14
g65
sg59
I0
sg67
I160
sg21
I113346
sg69
g70
sg73
I0
sg22
I0
sg75
g76
sg77
g78
sg28
I0
sg79
g80
sg27
I113845
sg82
I0
sg83
I00
sg15
I0
sg86
g87
sg88
g98
sS'RecMemTask.thisTrialN'
p516
I39
sg40
g41
sg43
I1
sg156
VStimuli/PL_053_SCENE15.bmp
p517
sg46
I1
sg32
g33
sg19
I2000
sg60
g61
sg20
I111351
sg66
g11
sS'RecMemTask.thisRepN'
p518
I0
sg68
I01
sg71
g72
sg62
g63
sg18
I113346
sg54
I1
sg24
I113346
sg25
I500
sg26
I113845
sg84
g85
sg74
I0
sg159
g147
sg81
g63
sg99
I1
sa(dp519
g17
I113850
sg145
g192
sg16
g147
sg44
g45
sg42
I1
sS'RecMemTask.thisN'
p520
I40
sg64
g65
sg47
g48
sg49
g50
sg51
I0
sg23
I115847
sg52
g53
sg55
g56
sg57
g58
sS'RecMemTask.thisIndex'
p521
g89
(g126
S'(\x00\x00\x00\x00\x00\x00\x00'
p522
tp523
Rp524
sg153
g154
sg14
g65
sg59
I0
sg67
I160
sg21
I115847
sg69
g70
sg73
I0
sg22
I0
sg75
g76
sg77
g78
sg28
I0
sg79
g80
sg27
I116346
sg82
I0
sg83
I00
sg15
I0
sg86
g87
sg88
g98
sS'RecMemTask.thisTrialN'
p525
I40
sg40
g41
sg43
I1
sg156
VStimuli/18F_HO.bmp
p526
sg46
I1
sg32
g33
sg19
I2000
sg60
g61
sg20
I113851
sg66
g11
sS'RecMemTask.thisRepN'
p527
I0
sg68
I01
sg71
g72
sg62
g63
sg18
I115847
sg54
I1
sg24
I115847
sg25
I500
sg26
I116346
sg84
g85
sg74
I0
sg159
g147
sg81
g63
sg99
I1
sa(dp528
g17
I116350
sg145
g171
sg16
g172
sg44
g45
sg42
I1
sS'RecMemTask.thisN'
p529
I41
sg64
g65
sg47
g48
sg49
g50
sg51
I0
sg23
I118346
sg52
g53
sg55
g56
sg57
g58
sS'RecMemTask.thisIndex'
p530
g89
(g126
S')\x00\x00\x00\x00\x00\x00\x00'
p531
tp532
Rp533
sg153
g154
sg14
g65
sg59
I0
sg67
I160
sg21
I118346
sg69
g70
sg73
I0
sg22
I0
sg75
g76
sg77
g78
sg28
I0
sg79
g80
sg27
I118847
sg82
I0
sg83
I00
sg15
I0
sg86
g87
sg88
g98
sS'RecMemTask.thisTrialN'
p534
I41
sg40
g41
sg43
I1
sg156
VStimuli/7F_NC.bmp
p535
sg46
I1
sg32
g33
sg19
I2000
sg60
g61
sg20
I116351
sg66
g11
sS'RecMemTask.thisRepN'
p536
I0
sg68
I01
sg71
g72
sg62
g63
sg18
I118346
sg54
I1
sg24
I118346
sg25
I500
sg26
I118847
sg84
g85
sg74
I0
sg159
g172
sg81
g63
sg99
I1
sa(dp537
g17
I118852
sg145
g146
sg16
g147
sg44
g45
sg42
I1
sS'RecMemTask.thisN'
p538
I42
sg64
g65
sg47
g48
sg49
g50
sg51
I0
sg23
I120847
sg52
g53
sg55
g56
sg57
g58
sS'RecMemTask.thisIndex'
p539
g89
(g126
S'*\x00\x00\x00\x00\x00\x00\x00'
p540
tp541
Rp542
sg153
g154
sg14
g65
sg59
I0
sg67
I160
sg21
I120847
sg69
g70
sg73
I0
sg22
I0
sg75
g76
sg77
g78
sg28
I0
sg79
g80
sg27
I121346
sg82
I0
sg83
I00
sg15
I0
sg86
g87
sg88
g98
sS'RecMemTask.thisTrialN'
p543
I42
sg40
g41
sg43
I1
sg156
g157
sg46
I1
sg32
g33
sg19
I2000
sg60
g61
sg20
I118852
sg66
g11
sS'RecMemTask.thisRepN'
p544
I0
sg68
I01
sg71
g72
sg62
g63
sg18
I120847
sg54
I1
sg24
I120847
sg25
I500
sg26
I121346
sg84
g85
sg74
I0
sg159
g147
sg81
g63
sg99
I1
sa(dp545
g17
I121351
sg145
g171
sg16
g172
sg44
g45
sg42
I1
sS'RecMemTask.thisN'
p546
I43
sg64
g65
sg47
g48
sg49
g50
sg51
I0
sg23
I123349
sg52
g53
sg55
g56
sg57
g58
sS'RecMemTask.thisIndex'
p547
g89
(g126
S'+\x00\x00\x00\x00\x00\x00\x00'
p548
tp549
Rp550
sg153
g154
sg14
g65
sg59
I0
sg67
I160
sg21
I123349
sg69
g70
sg73
I0
sg22
I0
sg75
g76
sg77
g78
sg28
I0
sg79
g80
sg27
I123848
sg82
I0
sg83
I00
sg15
I0
sg86
g87
sg88
g98
sS'RecMemTask.thisTrialN'
p551
I43
sg40
g41
sg43
I1
sg156
VStimuli/26M_NC.bmp
p552
sg46
I1
sg32
g33
sg19
I2000
sg60
g61
sg20
I121352
sg66
g11
sS'RecMemTask.thisRepN'
p553
I0
sg68
I01
sg71
g72
sg62
g63
sg18
I123349
sg54
I1
sg24
I123349
sg25
I500
sg26
I123847
sg84
g85
sg74
I0
sg159
g172
sg81
g63
sg99
I1
sa(dp554
g17
I123853
sg145
g182
sg16
g172
sg44
g45
sg42
I1
sS'RecMemTask.thisN'
p555
I44
sg64
g65
sg47
g48
sg49
g50
sg51
I0
sg23
I125850
sg52
g53
sg55
g56
sg57
g58
sS'RecMemTask.thisIndex'
p556
g89
(g126
S',\x00\x00\x00\x00\x00\x00\x00'
p557
tp558
Rp559
sg153
g154
sg14
g65
sg59
I0
sg67
I160
sg21
I125850
sg69
g70
sg73
I0
sg22
I0
sg75
g76
sg77
g78
sg28
I0
sg79
g80
sg27
I126348
sg82
I0
sg83
I00
sg15
I0
sg86
g87
sg88
g98
sS'RecMemTask.thisTrialN'
p560
I44
sg40
g41
sg43
I1
sg156
VStimuli/PL_007_92026.bmp
p561
sg46
I1
sg32
g33
sg19
I2000
sg60
g61
sg20
I123853
sg66
g11
sS'RecMemTask.thisRepN'
p562
I0
sg68
I01
sg71
g72
sg62
g63
sg18
I125850
sg54
I1
sg24
I125850
sg25
I500
sg26
I126348
sg84
g85
sg74
I0
sg159
g172
sg81
g63
sg99
I1
sa(dp563
g17
I126353
sg145
g192
sg16
g147
sg44
g45
sg42
I1
sS'RecMemTask.thisN'
p564
I45
sg64
g65
sg47
g48
sg49
g50
sg51
I0
sg23
I128350
sg52
g53
sg55
g56
sg57
g58
sS'RecMemTask.thisIndex'
p565
g89
(g126
S'-\x00\x00\x00\x00\x00\x00\x00'
p566
tp567
Rp568
sg153
g154
sg14
g65
sg59
I0
sg67
I160
sg21
I128350
sg69
g70
sg73
I0
sg22
I0
sg75
g76
sg77
g78
sg28
I0
sg79
g80
sg27
I128850
sg82
I0
sg83
I00
sg15
I0
sg86
g87
sg88
g98
sS'RecMemTask.thisTrialN'
p569
I45
sg40
g41
sg43
I1
sg156
VStimuli/HM01_HO.bmp
p570
sg46
I1
sg32
g33
sg19
I2000
sg60
g61
sg20
I126353
sg66
g11
sS'RecMemTask.thisRepN'
p571
I0
sg68
I01
sg71
g72
sg62
g63
sg18
I128350
sg54
I1
sg24
I128350
sg25
I500
sg26
I128850
sg84
g85
sg74
I0
sg159
g147
sg81
g63
sg99
I1
sa(dp572
g17
I128853
sg145
g240
sg16
g172
sg44
g45
sg42
I1
sS'RecMemTask.thisN'
p573
I46
sg64
g65
sg47
g48
sg49
g50
sg51
I0
sg23
I130849
sg52
g53
sg55
g56
sg57
g58
sS'RecMemTask.thisIndex'
p574
g89
(g126
S'.\x00\x00\x00\x00\x00\x00\x00'
p575
tp576
Rp577
sg153
g154
sg14
g65
sg59
I0
sg67
I160
sg21
I130849
sg69
g70
sg73
I0
sg22
I0
sg75
g76
sg77
g78
sg28
I0
sg79
g80
sg27
I131348
sg82
I0
sg83
I00
sg15
I0
sg86
g87
sg88
g98
sS'RecMemTask.thisTrialN'
p578
I46
sg40
g41
sg43
I1
sg156
VStimuli/BM08_HO.bmp
p579
sg46
I1
sg32
g33
sg19
I2000
sg60
g61
sg20
I128854
sg66
g11
sS'RecMemTask.thisRepN'
p580
I0
sg68
I01
sg71
g72
sg62
g63
sg18
I130849
sg54
I1
sg24
I130849
sg25
I500
sg26
I131348
sg84
g85
sg74
I0
sg159
g172
sg81
g63
sg99
I1
sa(dp581
g17
I131353
sg145
g221
sg16
g147
sg44
g45
sg42
I1
sS'RecMemTask.thisN'
p582
I47
sg64
g65
sg47
g48
sg49
g50
sg51
I0
sg23
I133348
sg52
g53
sg55
g56
sg57
g58
sS'RecMemTask.thisIndex'
p583
g89
(g126
S'/\x00\x00\x00\x00\x00\x00\x00'
p584
tp585
Rp586
sg153
g154
sg14
g65
sg59
I0
sg67
I160
sg21
I133348
sg69
g70
sg73
I0
sg22
I0
sg75
g76
sg77
g78
sg28
I0
sg79
g80
sg27
I133847
sg82
I0
sg83
I00
sg15
I0
sg86
g87
sg88
g98
sS'RecMemTask.thisTrialN'
p587
I47
sg40
g41
sg43
I1
sg156
VStimuli/WF015_FO.bmp
p588
sg46
I1
sg32
g33
sg19
I2000
sg60
g61
sg20
I131354
sg66
g11
sS'RecMemTask.thisRepN'
p589
I0
sg68
I01
sg71
g72
sg62
g63
sg18
I133348
sg54
I1
sg24
I133348
sg25
I500
sg26
I133847
sg84
g85
sg74
I0
sg159
g147
sg81
g63
sg99
I1
sa(dp590
g17
I133852
sg145
g211
sg16
g172
sg44
g45
sg42
I1
sS'RecMemTask.thisN'
p591
I48
sg64
g65
sg47
g48
sg49
g50
sg51
I0
sg23
I135848
sg52
g53
sg55
g56
sg57
g58
sS'RecMemTask.thisIndex'
p592
g89
(g126
S'0\x00\x00\x00\x00\x00\x00\x00'
p593
tp594
Rp595
sg153
g154
sg14
g65
sg59
I0
sg67
I160
sg21
I135849
sg69
g70
sg73
I0
sg22
I0
sg75
g76
sg77
g78
sg28
I0
sg79
g80
sg27
I136348
sg82
I0
sg83
I00
sg15
I0
sg86
g87
sg88
g98
sS'RecMemTask.thisTrialN'
p596
I48
sg40
g41
sg43
I1
sg156
VStimuli/AM05_FO.bmp
p597
sg46
I1
sg32
g33
sg19
I2000
sg60
g61
sg20
I133852
sg66
g11
sS'RecMemTask.thisRepN'
p598
I0
sg68
I01
sg71
g72
sg62
g63
sg18
I135849
sg54
I1
sg24
I135849
sg25
I500
sg26
I136348
sg84
g85
sg74
I0
sg159
g172
sg81
g63
sg99
I1
sa(dp599
g17
I136353
sg145
g221
sg16
g147
sg44
g45
sg42
I1
sS'RecMemTask.thisN'
p600
I49
sg64
g65
sg47
g48
sg49
g50
sg51
I0
sg23
I138349
sg52
g53
sg55
g56
sg57
g58
sS'RecMemTask.thisIndex'
p601
g89
(g126
S'1\x00\x00\x00\x00\x00\x00\x00'
p602
tp603
Rp604
sg153
g154
sg14
g65
sg59
I0
sg67
I160
sg21
I138349
sg69
g70
sg73
I0
sg22
I0
sg75
g76
sg77
g78
sg28
I0
sg79
g80
sg27
I138849
sg82
I0
sg83
I00
sg15
I0
sg86
g87
sg88
g98
sS'RecMemTask.thisTrialN'
p605
I49
sg40
g41
sg43
I1
sg156
VStimuli/BF05_FO.bmp
p606
sg46
I1
sg32
g33
sg19
I2000
sg60
g61
sg20
I136354
sg66
g11
sS'RecMemTask.thisRepN'
p607
I0
sg68
I01
sg71
g72
sg62
g63
sg18
I138349
sg54
I1
sg24
I138349
sg25
I500
sg26
I138849
sg84
g85
sg74
I0
sg159
g147
sg81
g63
sg99
I1
sa(dp608
g17
I138853
sg145
g171
sg16
g172
sg44
g45
sg42
I1
sS'RecMemTask.thisN'
p609
I50
sg64
g65
sg47
g48
sg49
g50
sg51
I0
sg23
I140850
sg52
g53
sg55
g56
sg57
g58
sS'RecMemTask.thisIndex'
p610
g89
(g126
S'2\x00\x00\x00\x00\x00\x00\x00'
p611
tp612
Rp613
sg153
g154
sg14
g65
sg59
I0
sg67
I160
sg21
I140850
sg69
g70
sg73
I0
sg22
I0
sg75
g76
sg77
g78
sg28
I0
sg79
g80
sg27
I141348
sg82
I0
sg83
I00
sg15
I0
sg86
g87
sg88
g98
sS'RecMemTask.thisTrialN'
p614
I50
sg40
g41
sg43
I1
sg156
VStimuli/AM04_NC.bmp
p615
sg46
I1
sg32
g33
sg19
I2000
sg60
g61
sg20
I138853
sg66
g11
sS'RecMemTask.thisRepN'
p616
I0
sg68
I01
sg71
g72
sg62
g63
sg18
I140850
sg54
I1
sg24
I140850
sg25
I500
sg26
I141348
sg84
g85
sg74
I0
sg159
g172
sg81
g63
sg99
I1
sa(dp617
g17
I141352
sg145
g161
sg16
g147
sg44
g45
sg42
I1
sS'RecMemTask.thisN'
p618
I51
sg64
g65
sg47
g48
sg49
g50
sg51
I0
sg23
I143350
sg52
g53
sg55
g56
sg57
g58
sS'RecMemTask.thisIndex'
p619
g89
(g126
S'3\x00\x00\x00\x00\x00\x00\x00'
p620
tp621
Rp622
sg153
g154
sg14
g65
sg59
I0
sg67
I160
sg21
I143350
sg69
g70
sg73
I0
sg22
I0
sg75
g76
sg77
g78
sg28
I0
sg79
g80
sg27
I143850
sg82
I0
sg83
I00
sg15
I0
sg86
g87
sg88
g98
sS'RecMemTask.thisTrialN'
p623
I51
sg40
g41
sg43
I1
sg156
VStimuli/PL_094_O6.1.bmp
p624
sg46
I1
sg32
g33
sg19
I2000
sg60
g61
sg20
I141352
sg66
g11
sS'RecMemTask.thisRepN'
p625
I0
sg68
I01
sg71
g72
sg62
g63
sg18
I143350
sg54
I1
sg24
I143351
sg25
I500
sg26
I143850
sg84
g85
sg74
I0
sg159
g147
sg81
g63
sg99
I1
sa(dp626
g17
I143855
sg145
g182
sg16
g172
sg44
g45
sg42
I1
sS'RecMemTask.thisN'
p627
I52
sg64
g65
sg47
g48
sg49
g50
sg51
I0
sg23
I145850
sg52
g53
sg55
g56
sg57
g58
sS'RecMemTask.thisIndex'
p628
g89
(g126
S'4\x00\x00\x00\x00\x00\x00\x00'
p629
tp630
Rp631
sg153
g154
sg14
g65
sg59
I0
sg67
I160
sg21
I145850
sg69
g70
sg73
I0
sg22
I0
sg75
g76
sg77
g78
sg28
I0
sg79
g80
sg27
I146350
sg82
I0
sg83
I00
sg15
I0
sg86
g87
sg88
g98
sS'RecMemTask.thisTrialN'
p632
I52
sg40
g41
sg43
I1
sg156
VStimuli/PL_046_SCENE03.bmp
p633
sg46
I1
sg32
g33
sg19
I2000
sg60
g61
sg20
I143856
sg66
g11
sS'RecMemTask.thisRepN'
p634
I0
sg68
I01
sg71
g72
sg62
g63
sg18
I145850
sg54
I1
sg24
I145850
sg25
I500
sg26
I146350
sg84
g85
sg74
I0
sg159
g172
sg81
g63
sg99
I1
sa(dp635
g17
I146356
sg145
g146
sg16
g147
sg44
g45
sg42
I1
sS'RecMemTask.thisN'
p636
I53
sg64
g65
sg47
g48
sg49
g50
sg51
I0
sg23
I148353
sg52
g53
sg55
g56
sg57
g58
sS'RecMemTask.thisIndex'
p637
g89
(g126
S'5\x00\x00\x00\x00\x00\x00\x00'
p638
tp639
Rp640
sg153
g154
sg14
g65
sg59
I0
sg67
I160
sg21
I148353
sg69
g70
sg73
I0
sg22
I0
sg75
g76
sg77
g78
sg28
I0
sg79
g80
sg27
I148850
sg82
I0
sg83
I00
sg15
I0
sg86
g87
sg88
g98
sS'RecMemTask.thisTrialN'
p641
I53
sg40
g41
sg43
I1
sg156
VStimuli/BF03_NC.bmp
p642
sg46
I1
sg32
g33
sg19
I2000
sg60
g61
sg20
I146356
sg66
g11
sS'RecMemTask.thisRepN'
p643
I0
sg68
I01
sg71
g72
sg62
g63
sg18
I148353
sg54
I1
sg24
I148353
sg25
I500
sg26
I148850
sg84
g85
sg74
I0
sg159
g147
sg81
g63
sg99
I1
sa(dp644
g17
I148855
sg145
g240
sg16
g172
sg44
g45
sg42
I1
sS'RecMemTask.thisN'
p645
I54
sg64
g65
sg47
g48
sg49
g50
sg51
I0
sg23
I150851
sg52
g53
sg55
g56
sg57
g58
sS'RecMemTask.thisIndex'
p646
g89
(g126
S'6\x00\x00\x00\x00\x00\x00\x00'
p647
tp648
Rp649
sg153
g154
sg14
g65
sg59
I0
sg67
I160
sg21
I150852
sg69
g70
sg73
I0
sg22
I0
sg75
g76
sg77
g78
sg28
I0
sg79
g80
sg27
I151351
sg82
I0
sg83
I00
sg15
I0
sg86
g87
sg88
g98
sS'RecMemTask.thisTrialN'
p650
I54
sg40
g41
sg43
I1
sg156
VStimuli/32M_HO.bmp
p651
sg46
I1
sg32
g33
sg19
I2000
sg60
g61
sg20
I148855
sg66
g11
sS'RecMemTask.thisRepN'
p652
I0
sg68
I01
sg71
g72
sg62
g63
sg18
I150852
sg54
I1
sg24
I150852
sg25
I500
sg26
I151351
sg84
g85
sg74
I0
sg159
g172
sg81
g63
sg99
I1
sa(dp653
g17
I151356
sg145
g192
sg16
g147
sg44
g45
sg42
I1
sS'RecMemTask.thisN'
p654
I55
sg64
g65
sg47
g48
sg49
g50
sg51
I0
sg23
I153351
sg52
g53
sg55
g56
sg57
g58
sS'RecMemTask.thisIndex'
p655
g89
(g126
S'7\x00\x00\x00\x00\x00\x00\x00'
p656
tp657
Rp658
sg153
g154
sg14
g65
sg59
I0
sg67
I160
sg21
I153351
sg69
g70
sg73
I0
sg22
I0
sg75
g76
sg77
g78
sg28
I0
sg79
g80
sg27
I153851
sg82
I0
sg83
I00
sg15
I0
sg86
g87
sg88
g98
sS'RecMemTask.thisTrialN'
p659
I55
sg40
g41
sg43
I1
sg156
VStimuli/BM01_HO.bmp
p660
sg46
I1
sg32
g33
sg19
I2000
sg60
g61
sg20
I151356
sg66
g11
sS'RecMemTask.thisRepN'
p661
I0
sg68
I01
sg71
g72
sg62
g63
sg18
I153351
sg54
I1
sg24
I153351
sg25
I500
sg26
I153851
sg84
g85
sg74
I0
sg159
g147
sg81
g63
sg99
I1
sa(dp662
g17
I153856
sg145
g240
sg16
g172
sg44
g45
sg42
I1
sS'RecMemTask.thisN'
p663
I56
sg64
g65
sg47
g48
sg49
g50
sg51
I0
sg23
I155851
sg52
g53
sg55
g56
sg57
g58
sS'RecMemTask.thisIndex'
p664
g89
(g126
S'8\x00\x00\x00\x00\x00\x00\x00'
p665
tp666
Rp667
sg153
g154
sg14
g65
sg59
I0
sg67
I160
sg21
I155851
sg69
g70
sg73
I0
sg22
I0
sg75
g76
sg77
g78
sg28
I0
sg79
g80
sg27
I156351
sg82
I0
sg83
I00
sg15
I0
sg86
g87
sg88
g98
sS'RecMemTask.thisTrialN'
p668
I56
sg40
g41
sg43
I1
sg156
VStimuli/BM06_HO.bmp
p669
sg46
I1
sg32
g33
sg19
I2000
sg60
g61
sg20
I153856
sg66
g11
sS'RecMemTask.thisRepN'
p670
I0
sg68
I01
sg71
g72
sg62
g63
sg18
I155851
sg54
I1
sg24
I155851
sg25
I500
sg26
I156351
sg84
g85
sg74
I0
sg159
g172
sg81
g63
sg99
I1
sa(dp671
g17
I156355
sg145
g146
sg16
g147
sg44
g45
sg42
I1
sS'RecMemTask.thisN'
p672
I57
sg64
g65
sg47
g48
sg49
g50
sg51
I0
sg23
I158353
sg52
g53
sg55
g56
sg57
g58
sS'RecMemTask.thisIndex'
p673
g89
(g126
S'9\x00\x00\x00\x00\x00\x00\x00'
p674
tp675
Rp676
sg153
g154
sg14
g65
sg59
I0
sg67
I160
sg21
I158353
sg69
g70
sg73
I0
sg22
I0
sg75
g76
sg77
g78
sg28
I0
sg79
g80
sg27
I158852
sg82
I0
sg83
I00
sg15
I0
sg86
g87
sg88
g98
sS'RecMemTask.thisTrialN'
p677
I57
sg40
g41
sg43
I1
sg156
VStimuli/AM204_NC.bmp
p678
sg46
I1
sg32
g33
sg19
I2000
sg60
g61
sg20
I156356
sg66
g11
sS'RecMemTask.thisRepN'
p679
I0
sg68
I01
sg71
g72
sg62
g63
sg18
I158353
sg54
I1
sg24
I158353
sg25
I500
sg26
I158852
sg84
g85
sg74
I0
sg159
g147
sg81
g63
sg99
I1
sa(dp680
g17
I158857
sg145
g221
sg16
g147
sg44
g45
sg42
I1
sS'RecMemTask.thisN'
p681
I58
sg64
g65
sg47
g48
sg49
g50
sg51
I0
sg23
I160852
sg52
g53
sg55
g56
sg57
g58
sS'RecMemTask.thisIndex'
p682
g89
(g126
S':\x00\x00\x00\x00\x00\x00\x00'
p683
tp684
Rp685
sg153
g154
sg14
g65
sg59
I0
sg67
I160
sg21
I160852
sg69
g70
sg73
I0
sg22
I0
sg75
g76
sg77
g78
sg28
I0
sg79
g80
sg27
I161352
sg82
I0
sg83
I00
sg15
I0
sg86
g87
sg88
g98
sS'RecMemTask.thisTrialN'
p686
I58
sg40
g41
sg43
I1
sg156
VStimuli/AF01_FO.bmp
p687
sg46
I1
sg32
g33
sg19
I2000
sg60
g61
sg20
I158857
sg66
g11
sS'RecMemTask.thisRepN'
p688
I0
sg68
I01
sg71
g72
sg62
g63
sg18
I160852
sg54
I1
sg24
I160852
sg25
I500
sg26
I161352
sg84
g85
sg74
I0
sg159
g147
sg81
g63
sg99
I1
sa(dp689
g17
I161357
sg145
g161
sg16
g147
sg44
g45
sg42
I1
sS'RecMemTask.thisN'
p690
I59
sg64
g65
sg47
g48
sg49
g50
sg51
I0
sg23
I163353
sg52
g53
sg55
g56
sg57
g58
sS'RecMemTask.thisIndex'
p691
g89
(g126
S';\x00\x00\x00\x00\x00\x00\x00'
p692
tp693
Rp694
sg153
g154
sg14
g65
sg59
I0
sg67
I160
sg21
I163353
sg69
g70
sg73
I0
sg22
I0
sg75
g76
sg77
g78
sg28
I0
sg79
g80
sg27
I163853
sg82
I0
sg83
I00
sg15
I0
sg86
g87
sg88
g98
sS'RecMemTask.thisTrialN'
p695
I59
sg40
g41
sg43
I1
sg156
VStimuli/PL_091_O5.1.bmp
p696
sg46
I1
sg32
g33
sg19
I2000
sg60
g61
sg20
I161357
sg66
g11
sS'RecMemTask.thisRepN'
p697
I0
sg68
I01
sg71
g72
sg62
g63
sg18
I163353
sg54
I1
sg24
I163353
sg25
I500
sg26
I163853
sg84
g85
sg74
I0
sg159
g147
sg81
g63
sg99
I1
sa(dp698
g17
I163857
sg145
g211
sg16
g172
sg44
g45
sg42
I1
sS'RecMemTask.thisN'
p699
I60
sg64
g65
sg47
g48
sg49
g50
sg51
I0
sg23
I165853
sg52
g53
sg55
g56
sg57
g58
sS'RecMemTask.thisIndex'
p700
g89
(g126
S'<\x00\x00\x00\x00\x00\x00\x00'
p701
tp702
Rp703
sg153
g154
sg14
g65
sg59
I0
sg67
I160
sg21
I165853
sg69
g70
sg73
I0
sg22
I0
sg75
g76
sg77
g78
sg28
I0
sg79
g80
sg27
I166353
sg82
I0
sg83
I00
sg15
I0
sg86
g87
sg88
g98
sS'RecMemTask.thisTrialN'
p704
I60
sg40
g41
sg43
I1
sg156
VStimuli/43M_FO.bmp
p705
sg46
I1
sg32
g33
sg19
I2000
sg60
g61
sg20
I163858
sg66
g11
sS'RecMemTask.thisRepN'
p706
I0
sg68
I01
sg71
g72
sg62
g63
sg18
I165853
sg54
I1
sg24
I165853
sg25
I500
sg26
I166353
sg84
g85
sg74
I0
sg159
g172
sg81
g63
sg99
I1
sa(dp707
g17
I166358
sg145
g171
sg16
g172
sg44
g45
sg42
I1
sS'RecMemTask.thisN'
p708
I61
sg64
g65
sg47
g48
sg49
g50
sg51
I0
sg23
I168353
sg52
g53
sg55
g56
sg57
g58
sS'RecMemTask.thisIndex'
p709
g89
(g126
S'=\x00\x00\x00\x00\x00\x00\x00'
p710
tp711
Rp712
sg153
g154
sg14
g65
sg59
I0
sg67
I160
sg21
I168353
sg69
g70
sg73
I0
sg22
I0
sg75
g76
sg77
g78
sg28
I0
sg79
g80
sg27
I168853
sg82
I0
sg83
I00
sg15
I0
sg86
g87
sg88
g98
sS'RecMemTask.thisTrialN'
p713
I61
sg40
g41
sg43
I1
sg156
VStimuli/BM04_NC.bmp
p714
sg46
I1
sg32
g33
sg19
I2000
sg60
g61
sg20
I166359
sg66
g11
sS'RecMemTask.thisRepN'
p715
I0
sg68
I01
sg71
g72
sg62
g63
sg18
I168353
sg54
I1
sg24
I168353
sg25
I500
sg26
I168852
sg84
g85
sg74
I0
sg159
g172
sg81
g63
sg99
I1
sa(dp716
g17
I168858
sg145
g182
sg16
g172
sg44
g45
sg42
I1
sS'RecMemTask.thisN'
p717
I62
sg64
g65
sg47
g48
sg49
g50
sg51
I0
sg23
I170854
sg52
g53
sg55
g56
sg57
g58
sS'RecMemTask.thisIndex'
p718
g89
(g126
S'>\x00\x00\x00\x00\x00\x00\x00'
p719
tp720
Rp721
sg153
g154
sg14
g65
sg59
I0
sg67
I160
sg21
I170854
sg69
g70
sg73
I0
sg22
I0
sg75
g76
sg77
g78
sg28
I0
sg79
g80
sg27
I171353
sg82
I0
sg83
I00
sg15
I0
sg86
g87
sg88
g98
sS'RecMemTask.thisTrialN'
p722
I62
sg40
g41
sg43
I1
sg156
VStimuli/PL_045_SCENE02.bmp
p723
sg46
I1
sg32
g33
sg19
I2000
sg60
g61
sg20
I168858
sg66
g11
sS'RecMemTask.thisRepN'
p724
I0
sg68
I01
sg71
g72
sg62
g63
sg18
I170854
sg54
I1
sg24
I170854
sg25
I500
sg26
I171353
sg84
g85
sg74
I0
sg159
g172
sg81
g63
sg99
I1
sa(dp725
g17
I171358
sg145
g192
sg16
g147
sg44
g45
sg42
I1
sS'RecMemTask.thisN'
p726
I63
sg64
g65
sg47
g48
sg49
g50
sg51
I0
sg23
I173354
sg52
g53
sg55
g56
sg57
g58
sS'RecMemTask.thisIndex'
p727
g89
(g126
S'?\x00\x00\x00\x00\x00\x00\x00'
p728
tp729
Rp730
sg153
g154
sg14
g65
sg59
I0
sg67
I160
sg21
I173354
sg69
g70
sg73
I0
sg22
I0
sg75
g76
sg77
g78
sg28
I0
sg79
g80
sg27
I173853
sg82
I0
sg83
I00
sg15
I0
sg86
g87
sg88
g98
sS'RecMemTask.thisTrialN'
p731
I63
sg40
g41
sg43
I1
sg156
VStimuli/2F_HO.bmp
p732
sg46
I1
sg32
g33
sg19
I2000
sg60
g61
sg20
I171359
sg66
g11
sS'RecMemTask.thisRepN'
p733
I0
sg68
I01
sg71
g72
sg62
g63
sg18
I173354
sg54
I1
sg24
I173354
sg25
I500
sg26
I173853
sg84
g85
sg74
I0
sg159
g147
sg81
g63
sg99
I1
sa(dp734
g17
I173858
sg145
g192
sg16
g147
sg44
g45
sg42
I1
sS'RecMemTask.thisN'
p735
I64
sg64
g65
sg47
g48
sg49
g50
sg51
I0
sg23
I175854
sg52
g53
sg55
g56
sg57
g58
sS'RecMemTask.thisIndex'
p736
g89
(g126
S'@\x00\x00\x00\x00\x00\x00\x00'
p737
tp738
Rp739
sg153
g154
sg14
g65
sg59
I0
sg67
I160
sg21
I175854
sg69
g70
sg73
I0
sg22
I0
sg75
g76
sg77
g78
sg28
I0
sg79
g80
sg27
I176353
sg82
I0
sg83
I00
sg15
I0
sg86
g87
sg88
g98
sS'RecMemTask.thisTrialN'
p740
I64
sg40
g41
sg43
I1
sg156
VStimuli/31M_HO.bmp
p741
sg46
I1
sg32
g33
sg19
I2000
sg60
g61
sg20
I173859
sg66
g11
sS'RecMemTask.thisRepN'
p742
I0
sg68
I01
sg71
g72
sg62
g63
sg18
I175854
sg54
I1
sg24
I175854
sg25
I500
sg26
I176353
sg84
g85
sg74
I0
sg159
g147
sg81
g63
sg99
I1
sa(dp743
g17
I176358
sg145
g146
sg16
g147
sg44
g45
sg42
I1
sS'RecMemTask.thisN'
p744
I65
sg64
g65
sg47
g48
sg49
g50
sg51
I0
sg23
I178354
sg52
g53
sg55
g56
sg57
g58
sS'RecMemTask.thisIndex'
p745
g89
(g126
S'A\x00\x00\x00\x00\x00\x00\x00'
p746
tp747
Rp748
sg153
g154
sg14
g65
sg59
I0
sg67
I160
sg21
I178354
sg69
g70
sg73
I0
sg22
I0
sg75
g76
sg77
g78
sg28
I0
sg79
g80
sg27
I178855
sg82
I0
sg83
I00
sg15
I0
sg86
g87
sg88
g98
sS'RecMemTask.thisTrialN'
p749
I65
sg40
g41
sg43
I1
sg156
VStimuli/LM242_NC.bmp
p750
sg46
I1
sg32
g33
sg19
I2000
sg60
g61
sg20
I176359
sg66
g11
sS'RecMemTask.thisRepN'
p751
I0
sg68
I01
sg71
g72
sg62
g63
sg18
I178354
sg54
I1
sg24
I178354
sg25
I500
sg26
I178854
sg84
g85
sg74
I0
sg159
g147
sg81
g63
sg99
I1
sa(dp752
g17
I178860
sg145
g182
sg16
g172
sg44
g45
sg42
I1
sS'RecMemTask.thisN'
p753
I66
sg64
g65
sg47
g48
sg49
g50
sg51
I0
sg23
I180838
sg52
g53
sg55
g56
sg57
g58
sS'RecMemTask.thisIndex'
p754
g89
(g126
S'B\x00\x00\x00\x00\x00\x00\x00'
p755
tp756
Rp757
sg153
g154
sg14
g65
sg59
I0
sg67
I160
sg21
I180838
sg69
g70
sg73
I0
sg22
I0
sg75
g76
sg77
g78
sg28
I0
sg79
g80
sg27
I181338
sg82
I0
sg83
I00
sg15
I0
sg86
g87
sg88
g98
sS'RecMemTask.thisTrialN'
p758
I66
sg40
g41
sg43
I1
sg156
VStimuli/PL_044_SCENE01.bmp
p759
sg46
I1
sg32
g33
sg19
I2000
sg60
g61
sg20
I178860
sg66
g11
sS'RecMemTask.thisRepN'
p760
I0
sg68
I01
sg71
g72
sg62
g63
sg18
I180838
sg54
I1
sg24
I180838
sg25
I500
sg26
I181338
sg84
g85
sg74
I0
sg159
g172
sg81
g63
sg99
I1
sa(dp761
g17
I181343
sg145
g240
sg16
g172
sg44
g45
sg42
I1
sS'RecMemTask.thisN'
p762
I67
sg64
g65
sg47
g48
sg49
g50
sg51
I0
sg23
I183338
sg52
g53
sg55
g56
sg57
g58
sS'RecMemTask.thisIndex'
p763
g89
(g126
S'C\x00\x00\x00\x00\x00\x00\x00'
p764
tp765
Rp766
sg153
g154
sg14
g65
sg59
I0
sg67
I160
sg21
I183338
sg69
g70
sg73
I0
sg22
I0
sg75
g76
sg77
g78
sg28
I0
sg79
g80
sg27
I183838
sg82
I0
sg83
I00
sg15
I0
sg86
g87
sg88
g98
sS'RecMemTask.thisTrialN'
p767
I67
sg40
g41
sg43
I1
sg156
VStimuli/HF02_HO.bmp
p768
sg46
I1
sg32
g33
sg19
I2000
sg60
g61
sg20
I181343
sg66
g11
sS'RecMemTask.thisRepN'
p769
I0
sg68
I01
sg71
g72
sg62
g63
sg18
I183338
sg54
I1
sg24
I183338
sg25
I500
sg26
I183838
sg84
g85
sg74
I0
sg159
g172
sg81
g63
sg99
I1
sa(dp770
g17
I183844
sg145
g221
sg16
g147
sg44
g45
sg42
I1
sS'RecMemTask.thisN'
p771
I68
sg64
g65
sg47
g48
sg49
g50
sg51
I0
sg23
I185839
sg52
g53
sg55
g56
sg57
g58
sS'RecMemTask.thisIndex'
p772
g89
(g126
S'D\x00\x00\x00\x00\x00\x00\x00'
p773
tp774
Rp775
sg153
g154
sg14
g65
sg59
I0
sg67
I160
sg21
I185839
sg69
g70
sg73
I0
sg22
I0
sg75
g76
sg77
g78
sg28
I0
sg79
g80
sg27
I186338
sg82
I0
sg83
I00
sg15
I0
sg86
g87
sg88
g98
sS'RecMemTask.thisTrialN'
p776
I68
sg40
g41
sg43
I1
sg156
VStimuli/38M_FO.bmp
p777
sg46
I1
sg32
g33
sg19
I2000
sg60
g61
sg20
I183844
sg66
g11
sS'RecMemTask.thisRepN'
p778
I0
sg68
I01
sg71
g72
sg62
g63
sg18
I185839
sg54
I1
sg24
I185839
sg25
I500
sg26
I186338
sg84
g85
sg74
I0
sg159
g147
sg81
g63
sg99
I1
sa(dp779
g17
I186344
sg145
g171
sg16
g172
sg44
g45
sg42
I1
sS'RecMemTask.thisN'
p780
I69
sg64
g65
sg47
g48
sg49
g50
sg51
I0
sg23
I188339
sg52
g53
sg55
g56
sg57
g58
sS'RecMemTask.thisIndex'
p781
g89
(g126
S'E\x00\x00\x00\x00\x00\x00\x00'
p782
tp783
Rp784
sg153
g154
sg14
g65
sg59
I0
sg67
I160
sg21
I188339
sg69
g70
sg73
I0
sg22
I0
sg75
g76
sg77
g78
sg28
I0
sg79
g80
sg27
I188839
sg82
I0
sg83
I00
sg15
I0
sg86
g87
sg88
g98
sS'RecMemTask.thisTrialN'
p785
I69
sg40
g41
sg43
I1
sg156
VStimuli/LF209_NC.bmp
p786
sg46
I1
sg32
g33
sg19
I2000
sg60
g61
sg20
I186344
sg66
g11
sS'RecMemTask.thisRepN'
p787
I0
sg68
I01
sg71
g72
sg62
g63
sg18
I188339
sg54
I1
sg24
I188339
sg25
I500
sg26
I188839
sg84
g85
sg74
I0
sg159
g172
sg81
g63
sg99
I1
sa(dp788
g17
I188844
sg145
g161
sg16
g147
sg44
g45
sg42
I1
sS'RecMemTask.thisN'
p789
I70
sg64
g65
sg47
g48
sg49
g50
sg51
I0
sg23
I190839
sg52
g53
sg55
g56
sg57
g58
sS'RecMemTask.thisIndex'
p790
g89
(g126
S'F\x00\x00\x00\x00\x00\x00\x00'
p791
tp792
Rp793
sg153
g154
sg14
g65
sg59
I0
sg67
I160
sg21
I190839
sg69
g70
sg73
I0
sg22
I0
sg75
g76
sg77
g78
sg28
I0
sg79
g80
sg27
I191387
sg82
I0
sg83
I00
sg15
I0
sg86
g87
sg88
g98
sS'RecMemTask.thisTrialN'
p794
I70
sg40
g41
sg43
I1
sg156
VStimuli/PL_093_O57.1.bmp
p795
sg46
I1
sg32
g33
sg19
I2000
sg60
g61
sg20
I188844
sg66
g11
sS'RecMemTask.thisRepN'
p796
I0
sg68
I01
sg71
g72
sg62
g63
sg18
I190839
sg54
I1
sg24
I190839
sg25
I500
sg26
I191387
sg84
g85
sg74
I0
sg159
g147
sg81
g63
sg99
I1
sa(dp797
g17
I191390
sg145
g171
sg16
g172
sg44
g45
sg42
I1
sS'RecMemTask.thisN'
p798
I71
sg64
g65
sg47
g48
sg49
g50
sg51
I0
sg23
I193339
sg52
g53
sg55
g56
sg57
g58
sS'RecMemTask.thisIndex'
p799
g89
(g126
S'G\x00\x00\x00\x00\x00\x00\x00'
p800
tp801
Rp802
sg153
g154
sg14
g65
sg59
I0
sg67
I160
sg21
I193339
sg69
g70
sg73
I0
sg22
I0
sg75
g76
sg77
g78
sg28
I0
sg79
g80
sg27
I193839
sg82
I0
sg83
I00
sg15
I0
sg86
g87
sg88
g98
sS'RecMemTask.thisTrialN'
p803
I71
sg40
g41
sg43
I1
sg156
VStimuli/AF216_NC.bmp
p804
sg46
I1
sg32
g33
sg19
I2000
sg60
g61
sg20
I191390
sg66
g11
sS'RecMemTask.thisRepN'
p805
I0
sg68
I01
sg71
g72
sg62
g63
sg18
I193339
sg54
I1
sg24
I193339
sg25
I500
sg26
I193839
sg84
g85
sg74
I0
sg159
g172
sg81
g63
sg99
I1
sa(dp806
g17
I193844
sg145
g146
sg16
g147
sg44
g45
sg42
I1
sS'RecMemTask.thisN'
p807
I72
sg64
g65
sg47
g48
sg49
g50
sg51
I0
sg23
I195841
sg52
g53
sg55
g56
sg57
g58
sS'RecMemTask.thisIndex'
p808
g89
(g126
S'H\x00\x00\x00\x00\x00\x00\x00'
p809
tp810
Rp811
sg153
g154
sg14
g65
sg59
I0
sg67
I160
sg21
I195841
sg69
g70
sg73
I0
sg22
I0
sg75
g76
sg77
g78
sg28
I0
sg79
g80
sg27
I196340
sg82
I0
sg83
I00
sg15
I0
sg86
g87
sg88
g98
sS'RecMemTask.thisTrialN'
p812
I72
sg40
g41
sg43
I1
sg156
VStimuli/30M_NC.bmp
p813
sg46
I1
sg32
g33
sg19
I2000
sg60
g61
sg20
I193845
sg66
g11
sS'RecMemTask.thisRepN'
p814
I0
sg68
I01
sg71
g72
sg62
g63
sg18
I195841
sg54
I1
sg24
I195841
sg25
I500
sg26
I196340
sg84
g85
sg74
I0
sg159
g147
sg81
g63
sg99
I1
sa(dp815
g17
I196344
sg145
g221
sg16
g147
sg44
g45
sg42
I1
sS'RecMemTask.thisN'
p816
I73
sg64
g65
sg47
g48
sg49
g50
sg51
I0
sg23
I198340
sg52
g53
sg55
g56
sg57
g58
sS'RecMemTask.thisIndex'
p817
g89
(g126
S'I\x00\x00\x00\x00\x00\x00\x00'
p818
tp819
Rp820
sg153
g154
sg14
g65
sg59
I0
sg67
I160
sg21
I198340
sg69
g70
sg73
I0
sg22
I0
sg75
g76
sg77
g78
sg28
I0
sg79
g80
sg27
I198840
sg82
I0
sg83
I00
sg15
I0
sg86
g87
sg88
g98
sS'RecMemTask.thisTrialN'
p821
I73
sg40
g41
sg43
I1
sg156
VStimuli/WM03_FO.bmp
p822
sg46
I1
sg32
g33
sg19
I2000
sg60
g61
sg20
I196345
sg66
g11
sS'RecMemTask.thisRepN'
p823
I0
sg68
I01
sg71
g72
sg62
g63
sg18
I198340
sg54
I1
sg24
I198340
sg25
I500
sg26
I198840
sg84
g85
sg74
I0
sg159
g147
sg81
g63
sg99
I1
sa(dp824
g17
I198844
sg145
g161
sg16
g147
sg44
g45
sg42
I1
sS'RecMemTask.thisN'
p825
I74
sg64
g65
sg47
g48
sg49
g50
sg51
I0
sg23
I200840
sg52
g53
sg55
g56
sg57
g58
sS'RecMemTask.thisIndex'
p826
g89
(g126
S'J\x00\x00\x00\x00\x00\x00\x00'
p827
tp828
Rp829
sg153
g154
sg14
g65
sg59
I0
sg67
I160
sg21
I200840
sg69
g70
sg73
I0
sg22
I0
sg75
g76
sg77
g78
sg28
I0
sg79
g80
sg27
I201340
sg82
I0
sg83
I00
sg15
I0
sg86
g87
sg88
g98
sS'RecMemTask.thisTrialN'
p830
I74
sg40
g41
sg43
I1
sg156
VStimuli/PL_100_O82.1.bmp
p831
sg46
I1
sg32
g33
sg19
I2000
sg60
g61
sg20
I198845
sg66
g11
sS'RecMemTask.thisRepN'
p832
I0
sg68
I01
sg71
g72
sg62
g63
sg18
I200840
sg54
I1
sg24
I200840
sg25
I500
sg26
I201340
sg84
g85
sg74
I0
sg159
g147
sg81
g63
sg99
I1
sa(dp833
g17
I201345
sg145
g192
sg16
g147
sg44
g45
sg42
I1
sS'RecMemTask.thisN'
p834
I75
sg64
g65
sg47
g48
sg49
g50
sg51
I0
sg23
I203341
sg52
g53
sg55
g56
sg57
g58
sS'RecMemTask.thisIndex'
p835
g89
(g126
S'K\x00\x00\x00\x00\x00\x00\x00'
p836
tp837
Rp838
sg153
g154
sg14
g65
sg59
I0
sg67
I160
sg21
I203341
sg69
g70
sg73
I0
sg22
I0
sg75
g76
sg77
g78
sg28
I0
sg79
g80
sg27
I203840
sg82
I0
sg83
I00
sg15
I0
sg86
g87
sg88
g98
sS'RecMemTask.thisTrialN'
p839
I75
sg40
g41
sg43
I1
sg156
VStimuli/BF009_HO.bmp
p840
sg46
I1
sg32
g33
sg19
I2000
sg60
g61
sg20
I201345
sg66
g11
sS'RecMemTask.thisRepN'
p841
I0
sg68
I01
sg71
g72
sg62
g63
sg18
I203341
sg54
I1
sg24
I203341
sg25
I500
sg26
I203840
sg84
g85
sg74
I0
sg159
g147
sg81
g63
sg99
I1
sa(dp842
g17
I203845
sg145
g211
sg16
g172
sg44
g45
sg42
I1
sS'RecMemTask.thisN'
p843
I76
sg64
g65
sg47
g48
sg49
g50
sg51
I0
sg23
I205841
sg52
g53
sg55
g56
sg57
g58
sS'RecMemTask.thisIndex'
p844
g89
(g126
S'L\x00\x00\x00\x00\x00\x00\x00'
p845
tp846
Rp847
sg153
g154
sg14
g65
sg59
I0
sg67
I160
sg21
I205841
sg69
g70
sg73
I0
sg22
I0
sg75
g76
sg77
g78
sg28
I0
sg79
g80
sg27
I206340
sg82
I0
sg83
I00
sg15
I0
sg86
g87
sg88
g98
sS'RecMemTask.thisTrialN'
p848
I76
sg40
g41
sg43
I1
sg156
VStimuli/WF034_FO.bmp
p849
sg46
I1
sg32
g33
sg19
I2000
sg60
g61
sg20
I203845
sg66
g11
sS'RecMemTask.thisRepN'
p850
I0
sg68
I01
sg71
g72
sg62
g63
sg18
I205841
sg54
I1
sg24
I205841
sg25
I500
sg26
I206340
sg84
g85
sg74
I0
sg159
g172
sg81
g63
sg99
I1
sa(dp851
g17
I206344
sg145
g182
sg16
g172
sg44
g45
sg42
I1
sS'RecMemTask.thisN'
p852
I77
sg64
g65
sg47
g48
sg49
g50
sg51
I0
sg23
I208341
sg52
g53
sg55
g56
sg57
g58
sS'RecMemTask.thisIndex'
p853
g89
(g126
S'M\x00\x00\x00\x00\x00\x00\x00'
p854
tp855
Rp856
sg153
g154
sg14
g65
sg59
I0
sg67
I160
sg21
I208342
sg69
g70
sg73
I0
sg22
I0
sg75
g76
sg77
g78
sg28
I0
sg79
g80
sg27
I208840
sg82
I0
sg83
I00
sg15
I0
sg86
g87
sg88
g98
sS'RecMemTask.thisTrialN'
p857
I77
sg40
g41
sg43
I1
sg156
VStimuli/PL_041_LEXINGTON17.bmp
p858
sg46
I1
sg32
g33
sg19
I2000
sg60
g61
sg20
I206344
sg66
g11
sS'RecMemTask.thisRepN'
p859
I0
sg68
I01
sg71
g72
sg62
g63
sg18
I208342
sg54
I1
sg24
I208342
sg25
I500
sg26
I208840
sg84
g85
sg74
I0
sg159
g172
sg81
g63
sg99
I1
sa(dp860
g17
I208844
sg145
g211
sg16
g172
sg44
g45
sg42
I1
sS'RecMemTask.thisN'
p861
I78
sg64
g65
sg47
g48
sg49
g50
sg51
I0
sg23
I210843
sg52
g53
sg55
g56
sg57
g58
sS'RecMemTask.thisIndex'
p862
g89
(g126
S'N\x00\x00\x00\x00\x00\x00\x00'
p863
tp864
Rp865
sg153
g154
sg14
g65
sg59
I0
sg67
I160
sg21
I210843
sg69
g70
sg73
I0
sg22
I0
sg75
g76
sg77
g78
sg28
I0
sg79
g80
sg27
I211343
sg82
I0
sg83
I00
sg15
I0
sg86
g87
sg88
g98
sS'RecMemTask.thisTrialN'
p866
I78
sg40
g41
sg43
I1
sg156
VStimuli/BF10_FO.bmp
p867
sg46
I1
sg32
g33
sg19
I2000
sg60
g61
sg20
I208844
sg66
g11
sS'RecMemTask.thisRepN'
p868
I0
sg68
I01
sg71
g72
sg62
g63
sg18
I210843
sg54
I1
sg24
I210843
sg25
I500
sg26
I211343
sg84
g85
sg74
I0
sg159
g172
sg81
g63
sg99
I1
sa(dp869
g17
I211347
sg145
g240
sg16
g172
sg44
g45
sg42
I1
sS'RecMemTask.thisN'
p870
I79
sg64
g65
sg47
g48
sg49
g50
sg51
I0
sg23
I213341
sg52
g53
sg55
g56
sg57
g58
sS'RecMemTask.thisIndex'
p871
g89
(g126
S'O\x00\x00\x00\x00\x00\x00\x00'
p872
tp873
Rp874
sg153
g154
sg14
g65
sg59
I0
sg67
I160
sg21
I213341
sg69
g70
sg73
I0
sg22
I0
sg75
g76
sg77
g78
sg28
I0
sg79
g80
sg27
I213841
sg82
I0
sg83
I00
sg15
I0
sg86
g87
sg88
g98
sS'RecMemTask.thisTrialN'
p875
I79
sg40
g41
sg43
I1
sg156
VStimuli/19F_HO.bmp
p876
sg46
I1
sg32
g33
sg19
I2000
sg60
g61
sg20
I211347
sg66
g11
sS'RecMemTask.thisRepN'
p877
I0
sg68
I01
sg71
g72
sg62
g63
sg18
I213341
sg54
I1
sg24
I213341
sg25
I500
sg26
I213841
sg84
g85
sg74
I0
sg159
g172
sg81
g63
sg99
I1
sa(dp878
g17
I213846
sg145
g171
sg16
g172
sg44
g45
sg42
I1
sS'RecMemTask.thisN'
p879
I80
sg64
g65
sg47
g48
sg49
g50
sg51
I0
sg23
I215845
sg52
g53
sg55
g56
sg57
g58
sS'RecMemTask.thisIndex'
p880
g89
(g126
S'P\x00\x00\x00\x00\x00\x00\x00'
p881
tp882
Rp883
sg153
g154
sg14
g65
sg59
I0
sg67
I160
sg21
I215846
sg69
g70
sg73
I0
sg22
I0
sg75
g76
sg77
g78
sg28
I0
sg79
g80
sg27
I216342
sg82
I0
sg83
I00
sg15
I0
sg86
g87
sg88
g98
sS'RecMemTask.thisTrialN'
p884
I80
sg40
g41
sg43
I1
sg156
VStimuli/WF02_NC.bmp
p885
sg46
I1
sg32
g33
sg19
I2000
sg60
g61
sg20
I213846
sg66
g11
sS'RecMemTask.thisRepN'
p886
I0
sg68
I01
sg71
g72
sg62
g63
sg18
I215846
sg54
I1
sg24
I215846
sg25
I500
sg26
I216342
sg84
g85
sg74
I0
sg159
g172
sg81
g63
sg99
I1
sa(dp887
g17
I216346
sg145
g182
sg16
g172
sg44
g45
sg42
I1
sS'RecMemTask.thisN'
p888
I81
sg64
g65
sg47
g48
sg49
g50
sg51
I0
sg23
I218342
sg52
g53
sg55
g56
sg57
g58
sS'RecMemTask.thisIndex'
p889
g89
(g126
S'Q\x00\x00\x00\x00\x00\x00\x00'
p890
tp891
Rp892
sg153
g154
sg14
g65
sg59
I0
sg67
I160
sg21
I218342
sg69
g70
sg73
I0
sg22
I0
sg75
g76
sg77
g78
sg28
I0
sg79
g80
sg27
I218842
sg82
I0
sg83
I00
sg15
I0
sg86
g87
sg88
g98
sS'RecMemTask.thisTrialN'
p893
I81
sg40
g41
sg43
I1
sg156
VStimuli/PL_043_LEXINGTON19.bmp
p894
sg46
I1
sg32
g33
sg19
I2000
sg60
g61
sg20
I216346
sg66
g11
sS'RecMemTask.thisRepN'
p895
I0
sg68
I01
sg71
g72
sg62
g63
sg18
I218342
sg54
I1
sg24
I218342
sg25
I500
sg26
I218842
sg84
g85
sg74
I0
sg159
g172
sg81
g63
sg99
I1
sa(dp896
g17
I218846
sg145
g182
sg16
g172
sg44
g45
sg42
I1
sS'RecMemTask.thisN'
p897
I82
sg64
g65
sg47
g48
sg49
g50
sg51
I0
sg23
I220843
sg52
g53
sg55
g56
sg57
g58
sS'RecMemTask.thisIndex'
p898
g89
(g126
S'R\x00\x00\x00\x00\x00\x00\x00'
p899
tp900
Rp901
sg153
g154
sg14
g65
sg59
I0
sg67
I160
sg21
I220843
sg69
g70
sg73
I0
sg22
I0
sg75
g76
sg77
g78
sg28
I0
sg79
g80
sg27
I221343
sg82
I0
sg83
I00
sg15
I0
sg86
g87
sg88
g98
sS'RecMemTask.thisTrialN'
p902
I82
sg40
g41
sg43
I1
sg156
VStimuli/PL_047_SCENE04.bmp
p903
sg46
I1
sg32
g33
sg19
I2000
sg60
g61
sg20
I218847
sg66
g11
sS'RecMemTask.thisRepN'
p904
I0
sg68
I01
sg71
g72
sg62
g63
sg18
I220843
sg54
I1
sg24
I220843
sg25
I500
sg26
I221343
sg84
g85
sg74
I0
sg159
g172
sg81
g63
sg99
I1
sa(dp905
g17
I221347
sg145
g146
sg16
g147
sg44
g45
sg42
I1
sS'RecMemTask.thisN'
p906
I83
sg64
g65
sg47
g48
sg49
g50
sg51
I0
sg23
I223343
sg52
g53
sg55
g56
sg57
g58
sS'RecMemTask.thisIndex'
p907
g89
(g126
S'S\x00\x00\x00\x00\x00\x00\x00'
p908
tp909
Rp910
sg153
g154
sg14
g65
sg59
I0
sg67
I160
sg21
I223343
sg69
g70
sg73
I0
sg22
I0
sg75
g76
sg77
g78
sg28
I0
sg79
g80
sg27
I223842
sg82
I0
sg83
I00
sg15
I0
sg86
g87
sg88
g98
sS'RecMemTask.thisTrialN'
p911
I83
sg40
g41
sg43
I1
sg156
VStimuli/AF201_NC.bmp
p912
sg46
I1
sg32
g33
sg19
I2000
sg60
g61
sg20
I221348
sg66
g11
sS'RecMemTask.thisRepN'
p913
I0
sg68
I01
sg71
g72
sg62
g63
sg18
I223343
sg54
I1
sg24
I223343
sg25
I500
sg26
I223842
sg84
g85
sg74
I0
sg159
g147
sg81
g63
sg99
I1
sa(dp914
g17
I223847
sg145
g146
sg16
g147
sg44
g45
sg42
I1
sS'RecMemTask.thisN'
p915
I84
sg64
g65
sg47
g48
sg49
g50
sg51
I0
sg23
I225845
sg52
g53
sg55
g56
sg57
g58
sS'RecMemTask.thisIndex'
p916
g89
(g126
S'T\x00\x00\x00\x00\x00\x00\x00'
p917
tp918
Rp919
sg153
g154
sg14
g65
sg59
I0
sg67
I160
sg21
I225846
sg69
g70
sg73
I0
sg22
I0
sg75
g76
sg77
g78
sg28
I0
sg79
g80
sg27
I226345
sg82
I0
sg83
I00
sg15
I0
sg86
g87
sg88
g98
sS'RecMemTask.thisTrialN'
p920
I84
sg40
g41
sg43
I1
sg156
VStimuli/LF207_NC.bmp
p921
sg46
I1
sg32
g33
sg19
I2000
sg60
g61
sg20
I223848
sg66
g11
sS'RecMemTask.thisRepN'
p922
I0
sg68
I01
sg71
g72
sg62
g63
sg18
I225846
sg54
I1
sg24
I225846
sg25
I500
sg26
I226345
sg84
g85
sg74
I0
sg159
g147
sg81
g63
sg99
I1
sa(dp923
g17
I226348
sg145
g161
sg16
g147
sg44
g45
sg42
I1
sS'RecMemTask.thisN'
p924
I85
sg64
g65
sg47
g48
sg49
g50
sg51
I0
sg23
I228344
sg52
g53
sg55
g56
sg57
g58
sS'RecMemTask.thisIndex'
p925
g89
(g126
S'U\x00\x00\x00\x00\x00\x00\x00'
p926
tp927
Rp928
sg153
g154
sg14
g65
sg59
I0
sg67
I160
sg21
I228344
sg69
g70
sg73
I0
sg22
I0
sg75
g76
sg77
g78
sg28
I0
sg79
g80
sg27
I228844
sg82
I0
sg83
I00
sg15
I0
sg86
g87
sg88
g98
sS'RecMemTask.thisTrialN'
p929
I85
sg40
g41
sg43
I1
sg156
VStimuli/PL_096_O69.1.bmp
p930
sg46
I1
sg32
g33
sg19
I2000
sg60
g61
sg20
I226349
sg66
g11
sS'RecMemTask.thisRepN'
p931
I0
sg68
I01
sg71
g72
sg62
g63
sg18
I228344
sg54
I1
sg24
I228345
sg25
I500
sg26
I228844
sg84
g85
sg74
I0
sg159
g147
sg81
g63
sg99
I1
sa(dp932
g17
I228849
sg145
g211
sg16
g172
sg44
g45
sg42
I1
sS'RecMemTask.thisN'
p933
I86
sg64
g65
sg47
g48
sg49
g50
sg51
I0
sg23
I230846
sg52
g53
sg55
g56
sg57
g58
sS'RecMemTask.thisIndex'
p934
g89
(g126
S'V\x00\x00\x00\x00\x00\x00\x00'
p935
tp936
Rp937
sg153
g154
sg14
g65
sg59
I0
sg67
I160
sg21
I230846
sg69
g70
sg73
I0
sg22
I0
sg75
g76
sg77
g78
sg28
I0
sg79
g80
sg27
I231345
sg82
I0
sg83
I00
sg15
I0
sg86
g87
sg88
g98
sS'RecMemTask.thisTrialN'
p938
I86
sg40
g41
sg43
I1
sg156
VStimuli/3F_FO.bmp
p939
sg46
I1
sg32
g33
sg19
I2000
sg60
g61
sg20
I228849
sg66
g11
sS'RecMemTask.thisRepN'
p940
I0
sg68
I01
sg71
g72
sg62
g63
sg18
I230846
sg54
I1
sg24
I230846
sg25
I500
sg26
I231345
sg84
g85
sg74
I0
sg159
g172
sg81
g63
sg99
I1
sa(dp941
g17
I231349
sg145
g192
sg16
g147
sg44
g45
sg42
I1
sS'RecMemTask.thisN'
p942
I87
sg64
g65
sg47
g48
sg49
g50
sg51
I0
sg23
I233350
sg52
g53
sg55
g56
sg57
g58
sS'RecMemTask.thisIndex'
p943
g89
(g126
S'W\x00\x00\x00\x00\x00\x00\x00'
p944
tp945
Rp946
sg153
g154
sg14
g65
sg59
I0
sg67
I160
sg21
I233350
sg69
g70
sg73
I0
sg22
I0
sg75
g76
sg77
g78
sg28
I0
sg79
g80
sg27
I233844
sg82
I0
sg83
I00
sg15
I0
sg86
g87
sg88
g98
sS'RecMemTask.thisTrialN'
p947
I87
sg40
g41
sg43
I1
sg156
VStimuli/AM02_HO.bmp
p948
sg46
I1
sg32
g33
sg19
I2000
sg60
g61
sg20
I231349
sg66
g11
sS'RecMemTask.thisRepN'
p949
I0
sg68
I01
sg71
g72
sg62
g63
sg18
I233350
sg54
I1
sg24
I233350
sg25
I500
sg26
I233844
sg84
g85
sg74
I0
sg159
g147
sg81
g63
sg99
I1
sa(dp950
g17
I233847
sg145
g221
sg16
g147
sg44
g45
sg42
I1
sS'RecMemTask.thisN'
p951
I88
sg64
g65
sg47
g48
sg49
g50
sg51
I0
sg23
I235846
sg52
g53
sg55
g56
sg57
g58
sS'RecMemTask.thisIndex'
p952
g89
(g126
S'X\x00\x00\x00\x00\x00\x00\x00'
p953
tp954
Rp955
sg153
g154
sg14
g65
sg59
I0
sg67
I160
sg21
I235846
sg69
g70
sg73
I0
sg22
I0
sg75
g76
sg77
g78
sg28
I0
sg79
g80
sg27
I236350
sg82
I0
sg83
I00
sg15
I0
sg86
g87
sg88
g98
sS'RecMemTask.thisTrialN'
p956
I88
sg40
g41
sg43
I1
sg156
VStimuli/BM028_FO.bmp
p957
sg46
I1
sg32
g33
sg19
I2000
sg60
g61
sg20
I233847
sg66
g11
sS'RecMemTask.thisRepN'
p958
I0
sg68
I01
sg71
g72
sg62
g63
sg18
I235846
sg54
I1
sg24
I235846
sg25
I500
sg26
I236350
sg84
g85
sg74
I0
sg159
g147
sg81
g63
sg99
I1
sa(dp959
g17
I236355
sg145
g240
sg16
g172
sg44
g45
sg42
I1
sS'RecMemTask.thisN'
p960
I89
sg64
g65
sg47
g48
sg49
g50
sg51
I0
sg23
I238344
sg52
g53
sg55
g56
sg57
g58
sS'RecMemTask.thisIndex'
p961
g89
(g126
S'Y\x00\x00\x00\x00\x00\x00\x00'
p962
tp963
Rp964
sg153
g154
sg14
g65
sg59
I0
sg67
I160
sg21
I238344
sg69
g70
sg73
I0
sg22
I0
sg75
g76
sg77
g78
sg28
I0
sg79
g80
sg27
I238845
sg82
I0
sg83
I00
sg15
I0
sg86
g87
sg88
g98
sS'RecMemTask.thisTrialN'
p965
I89
sg40
g41
sg43
I1
sg156
VStimuli/29M_HO.bmp
p966
sg46
I1
sg32
g33
sg19
I2000
sg60
g61
sg20
I236355
sg66
g11
sS'RecMemTask.thisRepN'
p967
I0
sg68
I01
sg71
g72
sg62
g63
sg18
I238344
sg54
I1
sg24
I238344
sg25
I500
sg26
I238845
sg84
g85
sg74
I0
sg159
g172
sg81
g63
sg99
I1
sa(dp968
g17
I238850
sg145
g240
sg16
g172
sg44
g45
sg42
I1
sS'RecMemTask.thisN'
p969
I90
sg64
g65
sg47
g48
sg49
g50
sg51
I0
sg23
I240846
sg52
g53
sg55
g56
sg57
g58
sS'RecMemTask.thisIndex'
p970
g89
(g126
S'Z\x00\x00\x00\x00\x00\x00\x00'
p971
tp972
Rp973
sg153
g154
sg14
g65
sg59
I0
sg67
I160
sg21
I240846
sg69
g70
sg73
I0
sg22
I0
sg75
g76
sg77
g78
sg28
I0
sg79
g80
sg27
I241345
sg82
I0
sg83
I00
sg15
I0
sg86
g87
sg88
g98
sS'RecMemTask.thisTrialN'
p974
I90
sg40
g41
sg43
I1
sg156
VStimuli/13F_HO.bmp
p975
sg46
I1
sg32
g33
sg19
I2000
sg60
g61
sg20
I238850
sg66
g11
sS'RecMemTask.thisRepN'
p976
I0
sg68
I01
sg71
g72
sg62
g63
sg18
I240846
sg54
I1
sg24
I240846
sg25
I500
sg26
I241345
sg84
g85
sg74
I0
sg159
g172
sg81
g63
sg99
I1
sa(dp977
g17
I241349
sg145
g221
sg16
g147
sg44
g45
sg42
I1
sS'RecMemTask.thisN'
p978
I91
sg64
g65
sg47
g48
sg49
g50
sg51
I0
sg23
I243347
sg52
g53
sg55
g56
sg57
g58
sS'RecMemTask.thisIndex'
p979
g89
(g126
S'[\x00\x00\x00\x00\x00\x00\x00'
p980
tp981
Rp982
sg153
g154
sg14
g65
sg59
I0
sg67
I160
sg21
I243347
sg69
g70
sg73
I0
sg22
I0
sg75
g76
sg77
g78
sg28
I0
sg79
g80
sg27
I243846
sg82
I0
sg83
I00
sg15
I0
sg86
g87
sg88
g98
sS'RecMemTask.thisTrialN'
p983
I91
sg40
g41
sg43
I1
sg156
VStimuli/15F_FO.bmp
p984
sg46
I1
sg32
g33
sg19
I2000
sg60
g61
sg20
I241350
sg66
g11
sS'RecMemTask.thisRepN'
p985
I0
sg68
I01
sg71
g72
sg62
g63
sg18
I243347
sg54
I1
sg24
I243347
sg25
I500
sg26
I243845
sg84
g85
sg74
I0
sg159
g147
sg81
g63
sg99
I1
sa(dp986
g17
I243850
sg145
g192
sg16
g147
sg44
g45
sg42
I1
sS'RecMemTask.thisN'
p987
I92
sg64
g65
sg47
g48
sg49
g50
sg51
I0
sg23
I245845
sg52
g53
sg55
g56
sg57
g58
sS'RecMemTask.thisIndex'
p988
g89
(g126
S'\\\x00\x00\x00\x00\x00\x00\x00'
p989
tp990
Rp991
sg153
g154
sg14
g65
sg59
I0
sg67
I160
sg21
I245845
sg69
g70
sg73
I0
sg22
I0
sg75
g76
sg77
g78
sg28
I0
sg79
g80
sg27
I246345
sg82
I0
sg83
I00
sg15
I0
sg86
g87
sg88
g98
sS'RecMemTask.thisTrialN'
p992
I92
sg40
g41
sg43
I1
sg156
VStimuli/BF018_HO.bmp
p993
sg46
I1
sg32
g33
sg19
I2000
sg60
g61
sg20
I243851
sg66
g11
sS'RecMemTask.thisRepN'
p994
I0
sg68
I01
sg71
g72
sg62
g63
sg18
I245845
sg54
I1
sg24
I245846
sg25
I500
sg26
I246345
sg84
g85
sg74
I0
sg159
g147
sg81
g63
sg99
I1
sa(dp995
g17
I246350
sg145
g161
sg16
g147
sg44
g45
sg42
I1
sS'RecMemTask.thisN'
p996
I93
sg64
g65
sg47
g48
sg49
g50
sg51
I0
sg23
I248346
sg52
g53
sg55
g56
sg57
g58
sS'RecMemTask.thisIndex'
p997
g89
(g126
S']\x00\x00\x00\x00\x00\x00\x00'
p998
tp999
Rp1000
sg153
g154
sg14
g65
sg59
I0
sg67
I160
sg21
I248346
sg69
g70
sg73
I0
sg22
I0
sg75
g76
sg77
g78
sg28
I0
sg79
g80
sg27
I248848
sg82
I0
sg83
I00
sg15
I0
sg86
g87
sg88
g98
sS'RecMemTask.thisTrialN'
p1001
I93
sg40
g41
sg43
I1
sg156
VStimuli/PL_090_O47.1.bmp
p1002
sg46
I1
sg32
g33
sg19
I2000
sg60
g61
sg20
I246351
sg66
g11
sS'RecMemTask.thisRepN'
p1003
I0
sg68
I01
sg71
g72
sg62
g63
sg18
I248346
sg54
I1
sg24
I248346
sg25
I500
sg26
I248848
sg84
g85
sg74
I0
sg159
g147
sg81
g63
sg99
I1
sa(dp1004
g17
I248852
sg145
g211
sg16
g172
sg44
g45
sg42
I1
sS'RecMemTask.thisN'
p1005
I94
sg64
g65
sg47
g48
sg49
g50
sg51
I0
sg23
I250849
sg52
g53
sg55
g56
sg57
g58
sS'RecMemTask.thisIndex'
p1006
g89
(g126
S'^\x00\x00\x00\x00\x00\x00\x00'
p1007
tp1008
Rp1009
sg153
g154
sg14
g65
sg59
I0
sg67
I160
sg21
I250849
sg69
g70
sg73
I0
sg22
I0
sg75
g76
sg77
g78
sg28
I0
sg79
g80
sg27
I251351
sg82
I0
sg83
I00
sg15
I0
sg86
g87
sg88
g98
sS'RecMemTask.thisTrialN'
p1010
I94
sg40
g41
sg43
I1
sg156
VStimuli/BM023_FO.bmp
p1011
sg46
I1
sg32
g33
sg19
I2000
sg60
g61
sg20
I248852
sg66
g11
sS'RecMemTask.thisRepN'
p1012
I0
sg68
I01
sg71
g72
sg62
g63
sg18
I250849
sg54
I1
sg24
I250849
sg25
I500
sg26
I251351
sg84
g85
sg74
I0
sg159
g172
sg81
g63
sg99
I1
sa(dp1013
g17
I251355
sg145
g171
sg16
g172
sg44
g45
sg42
I1
sS'RecMemTask.thisN'
p1014
I95
sg64
g65
sg47
g48
sg49
g50
sg51
I0
sg23
I253347
sg52
g53
sg55
g56
sg57
g58
sS'RecMemTask.thisIndex'
p1015
g89
(g126
S'_\x00\x00\x00\x00\x00\x00\x00'
p1016
tp1017
Rp1018
sg153
g154
sg14
g65
sg59
I0
sg67
I160
sg21
I253347
sg69
g70
sg73
I0
sg22
I0
sg75
g76
sg77
g78
sg28
I0
sg79
g80
sg27
I253847
sg82
I0
sg83
I00
sg15
I0
sg86
g87
sg88
g98
sS'RecMemTask.thisTrialN'
p1019
I95
sg40
g41
sg43
I1
sg156
VStimuli/AM210_NC.bmp
p1020
sg46
I1
sg32
g33
sg19
I2000
sg60
g61
sg20
I251356
sg66
g11
sS'RecMemTask.thisRepN'
p1021
I0
sg68
I01
sg71
g72
sg62
g63
sg18
I253347
sg54
I1
sg24
I253347
sg25
I500
sg26
I253847
sg84
g85
sg74
I0
sg159
g172
sg81
g63
sg99
I1
sasS'loops'
p1022
(lp1023
g0
(cpsychopy.data.trial
TrialHandler
p1024
g2
Ntp1025
Rp1026
(dp1027
S'origin'
p1028
NsS'thisTrial'
p1029
(lp1030
sS'_exp'
p1031
I4598746832
sg10
S'RecMemPractice'
p1032
sg6
I-1
sS'thisRepN'
p1033
I1
sg29
I01
sg30
g31
sS'data'
p1034
g0
(cpsychopy.data.base
DataHandler
p1035
c__builtin__
dict
p1036
(dp1037
g17
cnumpy.ma.core
_mareconstruct
p1038
(cnumpy.ma.core
MaskedArray
p1039
cnumpy
ndarray
p1040
(I0
tp1041
S'b'
p1042
tp1043
Rp1044
(I1
(I2
I1
tp1045
g90
(S'f4'
p1046
I0
I1
tp1047
Rp1048
(I3
S'<'
p1049
NNNI-1
I-1
I0
tp1050
bI00
S'\x00`\xb3D\x00h\xa9E'
p1051
S'\x00\x00'
p1052
Ntp1053
bsg16
cnumpy.core.multiarray
_reconstruct
p1054
(g1040
(I0
tp1055
g1042
tp1056
Rp1057
(I1
(I2
I1
tp1058
g90
(S'O8'
p1059
I0
I1
tp1060
Rp1061
(I3
S'|'
p1062
NNNI-1
I-1
I63
tp1063
bI00
(lp1064
g116
ag134
atp1065
bsS'ran'
p1066
g1038
(g1039
g1040
g1041
g1042
tp1067
Rp1068
(I1
(I2
I1
tp1069
g1048
I00
S'\x00\x00\x80?\x00\x00\x80?'
p1070
S'\x00\x00'
p1071
Ntp1072
bsg23
g1038
(g1039
g1040
g1041
g1042
tp1073
Rp1074
(I1
(I2
I1
tp1075
g1048
I00
S'\x00\x90UE\x00\xc8\xe7E'
p1076
S'\x00\x00'
p1077
Ntp1078
bsg19
g1038
(g1039
g1040
g1041
g1042
tp1079
Rp1080
(I1
(I2
I1
tp1081
g1048
I00
S'\x00\x00\xfaD\x00\x00\xfaD'
p1082
S'\x00\x00'
p1083
Ntp1084
bsg20
g1038
(g1039
g1040
g1041
g1042
tp1085
Rp1086
(I1
(I2
I1
tp1087
g1048
I00
S'\x00`\xb3D\x00p\xa9E'
p1088
S'\x00\x00'
p1089
Ntp1090
bsg14
g1054
(g1040
(I0
tp1091
g1042
tp1092
Rp1093
(I1
(I2
I1
tp1094
g1061
I00
(lp1095
g119
ag136
atp1096
bsg21
g1038
(g1039
g1040
g1041
g1042
tp1097
Rp1098
(I1
(I2
I1
tp1099
g1048
I00
S'\x00\x90UE\x00\xc8\xe7E'
p1100
S'\x00\x00'
p1101
Ntp1102
bsg22
g1038
(g1039
g1040
g1041
g1042
tp1103
Rp1104
(I1
(I2
I1
tp1105
g1048
I00
S'\x00\x90\x08E\x00h\xb7E'
p1106
S'\x00\x00'
p1107
Ntp1108
bsg18
g1038
(g1039
g1040
g1041
g1042
tp1109
Rp1110
(I1
(I2
I1
tp1111
g1048
I00
S'\x00\x90UE\x00\xc8\xe7E'
p1112
S'\x00\x00'
p1113
Ntp1114
bsg28
g1038
(g1039
g1040
g1041
g1042
tp1115
Rp1116
(I1
(I2
I1
tp1117
g1048
I00
S'\x00\x00\x00\x00\x00\x00\x80?'
p1118
S'\x00\x00'
p1119
Ntp1120
bsg24
g1038
(g1039
g1040
g1041
g1042
tp1121
Rp1122
(I1
(I2
I1
tp1123
g1048
I00
S'\x00\x90UE\x00\xd0\xe7E'
p1124
S'\x00\x00'
p1125
Ntp1126
bsg25
g1038
(g1039
g1040
g1041
g1042
tp1127
Rp1128
(I1
(I2
I1
tp1129
g1048
I00
S'\x00\x00\xfaC\x00\x00\xfaC'
p1130
S'\x00\x00'
p1131
Ntp1132
bsg26
g1038
(g1039
g1040
g1041
g1042
tp1133
Rp1134
(I1
(I2
I1
tp1135
g1048
I00
S'\x00\xd0tE\x00h\xf7E'
p1136
S'\x00\x00'
p1137
Ntp1138
bsg15
g1038
(g1039
g1040
g1041
g1042
tp1139
Rp1140
(I1
(I2
I1
tp1141
g1048
I00
S'\x00@;D\x00\x00\xdfC'
p1142
S'\x00\x00'
p1143
Ntp1144
bsS'order'
p1145
g1038
(g1039
g1040
g1041
g1042
tp1146
Rp1147
(I1
(I2
I1
tp1148
g1048
I00
S'\x00\x00\x00\x00\x00\x00\x80?'
p1149
S'\x00\x00'
p1150
Ntp1151
bsg27
g1038
(g1039
g1040
g1041
g1042
tp1152
Rp1153
(I1
(I2
I1
tp1154
g1048
I00
S'\x00\xd0tE\x00h\xf7E'
p1155
S'\x00\x00'
p1156
Ntp1157
bstp1158
Rp1159
(dp1160
S'isNumeric'
p1161
(dp1162
g17
I01
sg21
I01
sg16
I00
sg1066
I01
sg22
I01
sg28
I01
sg23
I01
sg18
I01
sg24
I01
sg25
I01
sg19
I01
sg26
I01
sg20
I01
sg15
I01
sg14
I00
sg1145
I01
sg27
I01
ssS'trials'
p1163
g1026
sS'dataTypes'
p1164
(lp1165
g1066
ag1145
ag14
ag15
ag16
ag17
ag18
ag19
ag20
ag21
ag22
ag23
ag24
ag25
ag26
ag27
ag28
asS'dataShape'
p1166
(lp1167
I2
aI1
asbsS'method'
p1168
S'sequential'
p1169
sS'sequenceIndices'
p1170
g1054
(g1040
(I0
tp1171
g1042
tp1172
Rp1173
(I1
(I2
I1
tp1174
g126
I00
S'\x00\x00\x00\x00\x00\x00\x00\x00\x01\x00\x00\x00\x00\x00\x00\x00'
p1175
tp1176
bsS'finished'
p1177
I01
sS'nReps'
p1178
I1
sS'nRemaining'
p1179
I-1
sS'trialList'
p1180
(lp1181
g0
(cpsychopy.data.trial
TrialType
p1182
g1036
(dp1183
g108
g121
sg109
g115
sg110
g118
sg111
g116
stp1184
Rp1185
ag0
(g1182
g1036
(dp1186
g108
g138
sg109
g133
sg110
g118
sg111
g134
stp1187
Rp1188
asS'seed'
p1189
NsS'thisIndex'
p1190
g143
sS'thisN'
p1191
I2
sS'thisTrialN'
p1192
I0
sS'nTotal'
p1193
I2
sbag0
(g1024
g2
Ntp1194
Rp1195
(dp1196
g1028
Nsg1029
(lp1197
sg1031
I4598746832
sg10
S'RecMemTask'
p1198
sg6
I-1
sg1033
I1
sg29
I01
sg30
g31
sg1034
g0
(g1035
g1036
(dp1199
g17
g1038
(g1039
g1040
g1041
g1042
tp1200
Rp1201
(I1
(I96
I1
tp1202
g1048
I00
S'\x00DXF\x00\x94\x7fF\x00P\x93F\x00\xd6\xa6F\x00b\xbaF\x00\xe6\xcdF\x00Z\xe1F\x00\xfa\xf4F\x00A\x04G\x00\xf8\rG\x00\xc9\x17G\x00\x92!G\x00D+G\x00\x075G\x00\xcf>G\x00\x8eHG\x00SRG\x00\x18\\G\x00\xdaeG\x00\xa1oG\x00eyG\x00\x95\x81G\x00w\x86G\x00Y\x8bG\x80:\x90G\x80\x1c\x95G\x00\x00\x9aG\x00\xe2\x9eG\x80\xc4\xa3G\x00\xa6\xa8G\x00\x88\xadG\x00j\xb2G\x00L\xb7G\x00/\xbcG\x80\x10\xc1G\x00\xf3\xc5G\x00\xd5\xcaG\x00\xb7\xcfG\x00\xa3\xd4G\x00{\xd9G\x00]\xdeG\x00?\xe3G\x00"\xe8G\x80\x03\xedG\x80\xe6\xf1G\x80\xc8\xf6G\x80\xaa\xfbG@F\x00H\x00\xb7\x02H@(\x05H@\x99\x07H\x00\n\nH\xc0{\x0cH\x00\xed\x0eH\xc0]\x11H\x00\xcf\x13H\x00@\x16H\xc0\xb0\x18H@"\x1bH@\x93\x1dH@\x04 H\x80u"H\x80\xe6$H\x80W\'H\x80\xc8)H\x809,H\x00\xab.H\xc0\x171H\x00\x893H\x00\xfa5H\x00k8H\x80\xe7:H\x00M=H\x00\xbe?H\x00/BH@\xa0DH@\x11GH\x00\x82IH\x00\xf3KH\xc0dNH\x80\xd5PH\x80FSH\x80\xb7UH\xc0(XH\xc0\x99ZH\x00\x0b]H@|_H@\xedaH\xc0]dH\xc0\xd0fH\x80@iH@\xb1kH\x80"nH\x80\x93pH\x00\x05sH\xc0vuH'
p1203
S'\x00\x00\x00\x00\x00\x00\x00\x00\x00\x00\x00\x00\x00\x00\x00\x00\x00\x00\x00\x00\x00\x00\x00\x00\x00\x00\x00\x00\x00\x00\x00\x00\x00\x00\x00\x00\x00\x00\x00\x00\x00\x00\x00\x00\x00\x00\x00\x00\x00\x00\x00\x00\x00\x00\x00\x00\x00\x00\x00\x00\x00\x00\x00\x00\x00\x00\x00\x00\x00\x00\x00\x00\x00\x00\x00\x00\x00\x00\x00\x00\x00\x00\x00\x00\x00\x00\x00\x00\x00\x00\x00\x00\x00\x00\x00\x00'
p1204
Ntp1205
bsg16
g1054
(g1040
(I0
tp1206
g1042
tp1207
Rp1208
(I1
(I96
I1
tp1209
g1061
I00
(lp1210
g147
ag147
ag172
ag172
ag147
ag172
ag172
ag147
ag172
ag172
ag172
ag147
ag172
ag147
ag147
ag147
ag147
ag147
ag172
ag147
ag147
ag172
ag172
ag172
ag147
ag172
ag147
ag147
ag172
ag147
ag172
ag172
ag172
ag172
ag147
ag147
ag147
ag172
ag172
ag147
ag147
ag172
ag147
ag172
ag172
ag147
ag172
ag147
ag172
ag147
ag172
ag147
ag172
ag147
ag172
ag147
ag172
ag147
ag147
ag147
ag172
ag172
ag172
ag147
ag147
ag147
ag172
ag172
ag147
ag172
ag147
ag172
ag147
ag147
ag147
ag147
ag172
ag172
ag172
ag172
ag172
ag172
ag172
ag147
ag147
ag147
ag172
ag147
ag147
ag172
ag172
ag147
ag147
ag147
ag172
ag172
atp1211
bsg1066
g1038
(g1039
g1040
g1041
g1042
tp1212
Rp1213
(I1
(I96
I1
tp1214
g1048
I00
S'\x00\x00\x80?\x00\x00\x80?\x00\x00\x80?\x00\x00\x80?\x00\x00\x80?\x00\x00\x80?\x00\x00\x80?\x00\x00\x80?\x00\x00\x80?\x00\x00\x80?\x00\x00\x80?\x00\x00\x80?\x00\x00\x80?\x00\x00\x80?\x00\x00\x80?\x00\x00\x80?\x00\x00\x80?\x00\x00\x80?\x00\x00\x80?\x00\x00\x80?\x00\x00\x80?\x00\x00\x80?\x00\x00\x80?\x00\x00\x80?\x00\x00\x80?\x00\x00\x80?\x00\x00\x80?\x00\x00\x80?\x00\x00\x80?\x00\x00\x80?\x00\x00\x80?\x00\x00\x80?\x00\x00\x80?\x00\x00\x80?\x00\x00\x80?\x00\x00\x80?\x00\x00\x80?\x00\x00\x80?\x00\x00\x80?\x00\x00\x80?\x00\x00\x80?\x00\x00\x80?\x00\x00\x80?\x00\x00\x80?\x00\x00\x80?\x00\x00\x80?\x00\x00\x80?\x00\x00\x80?\x00\x00\x80?\x00\x00\x80?\x00\x00\x80?\x00\x00\x80?\x00\x00\x80?\x00\x00\x80?\x00\x00\x80?\x00\x00\x80?\x00\x00\x80?\x00\x00\x80?\x00\x00\x80?\x00\x00\x80?\x00\x00\x80?\x00\x00\x80?\x00\x00\x80?\x00\x00\x80?\x00\x00\x80?\x00\x00\x80?\x00\x00\x80?\x00\x00\x80?\x00\x00\x80?\x00\x00\x80?\x00\x00\x80?\x00\x00\x80?\x00\x00\x80?\x00\x00\x80?\x00\x00\x80?\x00\x00\x80?\x00\x00\x80?\x00\x00\x80?\x00\x00\x80?\x00\x00\x80?\x00\x00\x80?\x00\x00\x80?\x00\x00\x80?\x00\x00\x80?\x00\x00\x80?\x00\x00\x80?\x00\x00\x80?\x00\x00\x80?\x00\x00\x80?\x00\x00\x80?\x00\x00\x80?\x00\x00\x80?\x00\x00\x80?\x00\x00\x80?\x00\x00\x80?\x00\x00\x80?'
p1215
S'\x00\x00\x00\x00\x00\x00\x00\x00\x00\x00\x00\x00\x00\x00\x00\x00\x00\x00\x00\x00\x00\x00\x00\x00\x00\x00\x00\x00\x00\x00\x00\x00\x00\x00\x00\x00\x00\x00\x00\x00\x00\x00\x00\x00\x00\x00\x00\x00\x00\x00\x00\x00\x00\x00\x00\x00\x00\x00\x00\x00\x00\x00\x00\x00\x00\x00\x00\x00\x00\x00\x00\x00\x00\x00\x00\x00\x00\x00\x00\x00\x00\x00\x00\x00\x00\x00\x00\x00\x00\x00\x00\x00\x00\x00\x00\x00'
p1216
Ntp1217
bsg23
g1038
(g1039
g1040
g1041
g1042
tp1218
Rp1219
(I1
(I96
I1
tp1220
g1048
I00
S'\x00\x80wF\x00^\x8fF\x00\xe8\xa2F\x00X\xb6F\x00\xf8\xc9F\x00j\xddF\x00\x08\xf1F\x00I\x02G\x00\x0e\x0cG\x00\xd2\x15G\x00\x8a\x1fG\x00J)G\x00\x0f3G\x00\xe3<G\x00\x97FG\x00[PG\x00 ZG\x00\xe3cG\x00\xa8mG\x00pwG\x80\x99\x80G\x00z\x85G\x00]\x8aG\x00?\x8fG\x80!\x94G\x00\x03\x99G\x80\xe5\x9dG\x00\xc8\xa2G\x00\xaa\xa7G\x80\x8b\xacG\x80m\xb1G\x00P\xb6G\x002\xbbG\x00\x14\xc0G\x00\xf6\xc4G\x80\xd8\xc9G\x80\xba\xceG\x80\x9c\xd3G\x80~\xd8G\x00a\xddG\x80C\xe2G\x00%\xe7G\x80\x07\xecG\x80\xea\xf0G\x00\xcd\xf5G\x00\xaf\xfaG\x80\x90\xffG\x009\x02H\x00\xaa\x04H@\x1b\x07H\x80\x8c\tH\x80\xfd\x0bH\x80n\x0eH@\xe0\x10H\xc0P\x13H\xc0\xc1\x15H\xc02\x18H@\xa4\x1aH\x00\x15\x1dH@\x86\x1fH@\xf7!H@h$H\x80\xd9&H\x80J)H\x80\xbb+H\x80,.H\x80\x990H\x80\n3H\xc0{5H\xc0\xec7H\xc0]:H\xc0\xce<H@@?H\x00\xb1AH\x00"DH@\x93FH@\x04IH@uKH\xc0\xe6MH@WPH@\xc9RH\x809UH\xc0\xaaWH\xc0\x1bZH@\x8d\\H\x00\xfe^H\x80oaH\x80\xe1cH\x80QfH\x00\xc2hH\x803kH\xc0\xa4mH@\x15pH\x80\x86rH@\xf8tH\xc0hwH'
p1221
S'\x00\x00\x00\x00\x00\x00\x00\x00\x00\x00\x00\x00\x00\x00\x00\x00\x00\x00\x00\x00\x00\x00\x00\x00\x00\x00\x00\x00\x00\x00\x00\x00\x00\x00\x00\x00\x00\x00\x00\x00\x00\x00\x00\x00\x00\x00\x00\x00\x00\x00\x00\x00\x00\x00\x00\x00\x00\x00\x00\x00\x00\x00\x00\x00\x00\x00\x00\x00\x00\x00\x00\x00\x00\x00\x00\x00\x00\x00\x00\x00\x00\x00\x00\x00\x00\x00\x00\x00\x00\x00\x00\x00\x00\x00\x00\x00'
p1222
Ntp1223
bsg19
g1038
(g1039
g1040
g1041
g1042
tp1224
Rp1225
(I1
(I96
I1
tp1226
g1048
I00
S'\x00\x00\xfaD\x00\x00\xfaD\x00\x00\xfaD\x00\x00\xfaD\x00\x00\xfaD\x00\x00\xfaD\x00\x00\xfaD\x00\x00\xfaD\x00\x00\xfaD\x00\x00\xfaD\x00\x00\xfaD\x00\x00\xfaD\x00\x00\xfaD\x00\x00\xfaD\x00\x00\xfaD\x00\x00\xfaD\x00\x00\xfaD\x00\x00\xfaD\x00\x00\xfaD\x00\x00\xfaD\x00\x00\xfaD\x00\x00\xfaD\x00\x00\xfaD\x00\x00\xfaD\x00\x00\xfaD\x00\x00\xfaD\x00\x00\xfaD\x00\x00\xfaD\x00\x00\xfaD\x00\x00\xfaD\x00\x00\xfaD\x00\x00\xfaD\x00\x00\xfaD\x00\x00\xfaD\x00\x00\xfaD\x00\x00\xfaD\x00\x00\xfaD\x00\x00\xfaD\x00\x00\xfaD\x00\x00\xfaD\x00\x00\xfaD\x00\x00\xfaD\x00\x00\xfaD\x00\x00\xfaD\x00\x00\xfaD\x00\x00\xfaD\x00\x00\xfaD\x00\x00\xfaD\x00\x00\xfaD\x00\x00\xfaD\x00\x00\xfaD\x00\x00\xfaD\x00\x00\xfaD\x00\x00\xfaD\x00\x00\xfaD\x00\x00\xfaD\x00\x00\xfaD\x00\x00\xfaD\x00\x00\xfaD\x00\x00\xfaD\x00\x00\xfaD\x00\x00\xfaD\x00\x00\xfaD\x00\x00\xfaD\x00\x00\xfaD\x00\x00\xfaD\x00\x00\xfaD\x00\x00\xfaD\x00\x00\xfaD\x00\x00\xfaD\x00\x00\xfaD\x00\x00\xfaD\x00\x00\xfaD\x00\x00\xfaD\x00\x00\xfaD\x00\x00\xfaD\x00\x00\xfaD\x00\x00\xfaD\x00\x00\xfaD\x00\x00\xfaD\x00\x00\xfaD\x00\x00\xfaD\x00\x00\xfaD\x00\x00\xfaD\x00\x00\xfaD\x00\x00\xfaD\x00\x00\xfaD\x00\x00\xfaD\x00\x00\xfaD\x00\x00\xfaD\x00\x00\xfaD\x00\x00\xfaD\x00\x00\xfaD\x00\x00\xfaD\x00\x00\xfaD\x00\x00\xfaD'
p1227
S'\x00\x00\x00\x00\x00\x00\x00\x00\x00\x00\x00\x00\x00\x00\x00\x00\x00\x00\x00\x00\x00\x00\x00\x00\x00\x00\x00\x00\x00\x00\x00\x00\x00\x00\x00\x00\x00\x00\x00\x00\x00\x00\x00\x00\x00\x00\x00\x00\x00\x00\x00\x00\x00\x00\x00\x00\x00\x00\x00\x00\x00\x00\x00\x00\x00\x00\x00\x00\x00\x00\x00\x00\x00\x00\x00\x00\x00\x00\x00\x00\x00\x00\x00\x00\x00\x00\x00\x00\x00\x00\x00\x00\x00\x00\x00\x00'
p1228
Ntp1229
bsg20
g1038
(g1039
g1040
g1041
g1042
tp1230
Rp1231
(I1
(I96
I1
tp1232
g1048
I00
S'\x00DXF\x00\x94\x7fF\x00P\x93F\x00\xd6\xa6F\x00b\xbaF\x00\xe6\xcdF\x00Z\xe1F\x00\xfc\xf4F\x00A\x04G\x00\xf9\rG\x00\xca\x17G\x00\x92!G\x00D+G\x00\t5G\x00\xcf>G\x00\x8fHG\x00SRG\x00\x18\\G\x00\xdbeG\x00\xa1oG\x00eyG\x00\x95\x81G\x80w\x86G\x80Y\x8bG\x80:\x90G\x80\x1c\x95G\x00\x00\x9aG\x00\xe2\x9eG\x80\xc4\xa3G\x00\xa6\xa8G\x00\x88\xadG\x80j\xb2G\x80L\xb7G\x00/\xbcG\x00\x11\xc1G\x00\xf3\xc5G\x00\xd5\xcaG\x00\xb7\xcfG\x00\xa3\xd4G\x80{\xd9G\x80]\xdeG\x80?\xe3G\x00"\xe8G\x00\x04\xedG\x80\xe6\xf1G\x80\xc8\xf6G\x00\xab\xfbG\x80F\x00H\x00\xb7\x02H\x80(\x05H@\x99\x07H\x00\n\nH\x00|\x0cH\x00\xed\x0eH\xc0]\x11H\x00\xcf\x13H\x00@\x16H\x00\xb1\x18H@"\x1bH@\x93\x1dH\x80\x04 H\xc0u"H\x80\xe6$H\xc0W\'H\xc0\xc8)H\xc09,H\x00\xab.H\xc0\x171H\x00\x893H\x00\xfa5H\x00k8H\x80\xe7:H@M=H@\xbe?H@/BH@\xa0DH@\x11GH\x00\x82IH\x00\xf3KH\xc0dNH\x80\xd5PH\x80FSH\xc0\xb7UH\x00)XH\x00\x9aZH@\x0b]H@|_H@\xedaH\xc0]dH\xc0\xd0fH\x80@iH\x80\xb1kH\xc0"nH\xc0\x93pH\x00\x05sH\x00wuH'
p1233
S'\x00\x00\x00\x00\x00\x00\x00\x00\x00\x00\x00\x00\x00\x00\x00\x00\x00\x00\x00\x00\x00\x00\x00\x00\x00\x00\x00\x00\x00\x00\x00\x00\x00\x00\x00\x00\x00\x00\x00\x00\x00\x00\x00\x00\x00\x00\x00\x00\x00\x00\x00\x00\x00\x00\x00\x00\x00\x00\x00\x00\x00\x00\x00\x00\x00\x00\x00\x00\x00\x00\x00\x00\x00\x00\x00\x00\x00\x00\x00\x00\x00\x00\x00\x00\x00\x00\x00\x00\x00\x00\x00\x00\x00\x00\x00\x00'
p1234
Ntp1235
bsg14
g1054
(g1040
(I0
tp1236
g1042
tp1237
Rp1238
(I1
(I96
I1
tp1239
g1061
I00
(lp1240
g65
ag65
ag65
ag65
ag65
ag65
ag65
ag65
ag65
ag65
ag65
ag65
ag65
ag65
ag65
ag65
ag65
ag65
ag65
ag65
ag65
ag65
ag65
ag65
ag65
ag65
ag65
ag65
ag65
ag65
ag65
ag65
ag65
ag65
ag65
ag65
ag65
ag65
ag65
ag65
ag65
ag65
ag65
ag65
ag65
ag65
ag65
ag65
ag65
ag65
ag65
ag65
ag65
ag65
ag65
ag65
ag65
ag65
ag65
ag65
ag65
ag65
ag65
ag65
ag65
ag65
ag65
ag65
ag65
ag65
ag65
ag65
ag65
ag65
ag65
ag65
ag65
ag65
ag65
ag65
ag65
ag65
ag65
ag65
ag65
ag65
ag65
ag65
ag65
ag65
ag65
ag65
ag65
ag65
ag65
ag65
atp1241
bsg21
g1038
(g1039
g1040
g1041
g1042
tp1242
Rp1243
(I1
(I96
I1
tp1244
g1048
I00
S'\x00\x80wF\x00^\x8fF\x00\xe8\xa2F\x00X\xb6F\x00\xf8\xc9F\x00j\xddF\x00\x08\xf1F\x00I\x02G\x00\x0e\x0cG\x00\xd2\x15G\x00\x8a\x1fG\x00J)G\x00\x0f3G\x00\xe3<G\x00\x97FG\x00[PG\x00 ZG\x00\xe3cG\x00\xa8mG\x00pwG\x80\x99\x80G\x00z\x85G\x00]\x8aG\x00?\x8fG\x80!\x94G\x00\x03\x99G\x80\xe5\x9dG\x00\xc8\xa2G\x00\xaa\xa7G\x80\x8b\xacG\x80m\xb1G\x00P\xb6G\x002\xbbG\x00\x14\xc0G\x00\xf6\xc4G\x80\xd8\xc9G\x80\xba\xceG\x80\x9c\xd3G\x80~\xd8G\x00a\xddG\x80C\xe2G\x00%\xe7G\x80\x07\xecG\x80\xea\xf0G\x00\xcd\xf5G\x00\xaf\xfaG\x80\x90\xffG\x009\x02H@\xaa\x04H@\x1b\x07H\x80\x8c\tH\x80\xfd\x0bH\x80n\x0eH@\xe0\x10H\x00Q\x13H\xc0\xc1\x15H\xc02\x18H@\xa4\x1aH\x00\x15\x1dH@\x86\x1fH@\xf7!H@h$H\x80\xd9&H\x80J)H\x80\xbb+H\x80,.H\x80\x990H\x80\n3H\xc0{5H\xc0\xec7H\xc0]:H\xc0\xce<H@@?H\x00\xb1AH\x00"DH@\x93FH@\x04IH\x80uKH\xc0\xe6MH@WPH\x80\xc9RH\x809UH\xc0\xaaWH\xc0\x1bZH\x80\x8d\\H\x00\xfe^H\x80oaH\x80\xe1cH\x80QfH\x00\xc2hH\x803kH\xc0\xa4mH@\x15pH\x80\x86rH@\xf8tH\xc0hwH'
p1245
S'\x00\x00\x00\x00\x00\x00\x00\x00\x00\x00\x00\x00\x00\x00\x00\x00\x00\x00\x00\x00\x00\x00\x00\x00\x00\x00\x00\x00\x00\x00\x00\x00\x00\x00\x00\x00\x00\x00\x00\x00\x00\x00\x00\x00\x00\x00\x00\x00\x00\x00\x00\x00\x00\x00\x00\x00\x00\x00\x00\x00\x00\x00\x00\x00\x00\x00\x00\x00\x00\x00\x00\x00\x00\x00\x00\x00\x00\x00\x00\x00\x00\x00\x00\x00\x00\x00\x00\x00\x00\x00\x00\x00\x00\x00\x00\x00'
p1246
Ntp1247
bsg22
g1038
(g1039
g1040
g1041
g1042
tp1248
Rp1249
(I1
(I96
I1
tp1250
g1048
I00
S'\x00\x00\x00\x00\x00\x00\x00\x00\x00\x00\x00\x00\x00\x00\x00\x00\x00\x00\x00\x00\x00\x00\x00\x00\x00\x00\x00\x00\x00\x00\x00\x00\x00\x00\x00\x00\x00\x00\x00\x00\x00\x00\x00\x00\x00\x00\x00\x00\x00\x00\x00\x00\x00\x00\x00\x00\x00\x00\x00\x00\x00\x00\x00\x00\x00\x00\x00\x00\x00\x00\x00\x00\x00\x00\x00\x00\x00\x00\x00\x00\x00\x00\x00\x00\x00\x00\x00\x00\x00\x00\x00\x00\x00\x00\x00\x00\x00\x00\x00\x00\x00\x00\x00\x00\x00\x00\x00\x00\x00\x00\x00\x00\x00\x00\x00\x00\x00\x00\x00\x00\x00\x00\x00\x00\x00\x00\x00\x00\x00\x00\x00\x00\x00\x00\x00\x00\x00\x00\x00\x00\x00\x00\x00\x00\x00\x00\x00\x00\x00\x00\x00\x00\x00\x00\x00\x00\x00\x00\x00\x00\x00\x00\x00\x00\x00\x00\x00\x00\x00\x00\x00\x00\x00\x00\x00\x00\x00\x00\x00\x00\x00\x00\x00\x00\x00\x00\x00\x00\x00\x00\x00\x00\x00\x00\x00\x00\x00\x00\x00\x00\x00\x00\x00\x00\x00\x00\x00\x00\x00\x00\x00\x00\x00\x00\x00\x00\x00\x00\x00\x00\x00\x00\x00\x00\x00\x00\x00\x00\x00\x00\x00\x00\x00\x00\x00\x00\x00\x00\x00\x00\x00\x00\x00\x00\x00\x00\x00\x00\x00\x00\x00\x00\x00\x00\x00\x00\x00\x00\x00\x00\x00\x00\x00\x00\x00\x00\x00\x00\x00\x00\x00\x00\x00\x00\x00\x00\x00\x00\x00\x00\x00\x00\x00\x00\x00\x00\x00\x00\x00\x00\x00\x00\x00\x00\x00\x00\x00\x00\x00\x00\x00\x00\x00\x00\x00\x00\x00\x00\x00\x00\x00\x00\x00\x00\x00\x00\x00\x00\x00\x00\x00\x00\x00\x00\x00\x00\x00\x00\x00\x00\x00\x00\x00\x00\x00\x00\x00\x00\x00\x00\x00\x00\x00\x00\x00\x00\x00\x00\x00\x00\x00\x00\x00\x00\x00\x00\x00\x00\x00\x00\x00\x00\x00\x00\x00\x00\x00\x00\x00\x00\x00\x00\x00\x00\x00\x00\x00\x00\x00\x00\x00\x00\x00\x00'
p1251
S'\x00\x00\x00\x00\x00\x00\x00\x00\x00\x00\x00\x00\x00\x00\x00\x00\x00\x00\x00\x00\x00\x00\x00\x00\x00\x00\x00\x00\x00\x00\x00\x00\x00\x00\x00\x00\x00\x00\x00\x00\x00\x00\x00\x00\x00\x00\x00\x00\x00\x00\x00\x00\x00\x00\x00\x00\x00\x00\x00\x00\x00\x00\x00\x00\x00\x00\x00\x00\x00\x00\x00\x00\x00\x00\x00\x00\x00\x00\x00\x00\x00\x00\x00\x00\x00\x00\x00\x00\x00\x00\x00\x00\x00\x00\x00\x00'
p1252
Ntp1253
bsg18
g1038
(g1039
g1040
g1041
g1042
tp1254
Rp1255
(I1
(I96
I1
tp1256
g1048
I00
S'\x00\x80wF\x00^\x8fF\x00\xe8\xa2F\x00X\xb6F\x00\xf8\xc9F\x00j\xddF\x00\x08\xf1F\x00I\x02G\x00\x0e\x0cG\x00\xd2\x15G\x00\x8a\x1fG\x00J)G\x00\x0f3G\x00\xe3<G\x00\x97FG\x00[PG\x00 ZG\x00\xe3cG\x00\xa8mG\x00pwG\x80\x99\x80G\x00z\x85G\x00]\x8aG\x00?\x8fG\x80!\x94G\x00\x03\x99G\x80\xe5\x9dG\x00\xc8\xa2G\x00\xaa\xa7G\x80\x8b\xacG\x80m\xb1G\x00P\xb6G\x002\xbbG\x00\x14\xc0G\x00\xf6\xc4G\x80\xd8\xc9G\x80\xba\xceG\x80\x9c\xd3G\x80~\xd8G\x00a\xddG\x80C\xe2G\x00%\xe7G\x80\x07\xecG\x80\xea\xf0G\x00\xcd\xf5G\x00\xaf\xfaG\x80\x90\xffG\x009\x02H@\xaa\x04H@\x1b\x07H\x80\x8c\tH\x80\xfd\x0bH\x80n\x0eH@\xe0\x10H\x00Q\x13H\xc0\xc1\x15H\xc02\x18H@\xa4\x1aH\x00\x15\x1dH@\x86\x1fH@\xf7!H@h$H\x80\xd9&H\x80J)H\x80\xbb+H\x80,.H\x80\x990H\x80\n3H\xc0{5H\xc0\xec7H\xc0]:H\xc0\xce<H@@?H\x00\xb1AH\x00"DH@\x93FH@\x04IH\x80uKH\xc0\xe6MH@WPH\x80\xc9RH\x809UH\xc0\xaaWH\xc0\x1bZH\x80\x8d\\H\x00\xfe^H\x80oaH\x80\xe1cH\x80QfH\x00\xc2hH\x803kH\xc0\xa4mH@\x15pH\x80\x86rH@\xf8tH\xc0hwH'
p1257
S'\x00\x00\x00\x00\x00\x00\x00\x00\x00\x00\x00\x00\x00\x00\x00\x00\x00\x00\x00\x00\x00\x00\x00\x00\x00\x00\x00\x00\x00\x00\x00\x00\x00\x00\x00\x00\x00\x00\x00\x00\x00\x00\x00\x00\x00\x00\x00\x00\x00\x00\x00\x00\x00\x00\x00\x00\x00\x00\x00\x00\x00\x00\x00\x00\x00\x00\x00\x00\x00\x00\x00\x00\x00\x00\x00\x00\x00\x00\x00\x00\x00\x00\x00\x00\x00\x00\x00\x00\x00\x00\x00\x00\x00\x00\x00\x00'
p1258
Ntp1259
bsg28
g1038
(g1039
g1040
g1041
g1042
tp1260
Rp1261
(I1
(I96
I1
tp1262
g1048
I00
S'\x00\x00\x00\x00\x00\x00\x00\x00\x00\x00\x00\x00\x00\x00\x00\x00\x00\x00\x00\x00\x00\x00\x00\x00\x00\x00\x00\x00\x00\x00\x00\x00\x00\x00\x00\x00\x00\x00\x00\x00\x00\x00\x00\x00\x00\x00\x00\x00\x00\x00\x00\x00\x00\x00\x00\x00\x00\x00\x00\x00\x00\x00\x00\x00\x00\x00\x00\x00\x00\x00\x00\x00\x00\x00\x00\x00\x00\x00\x00\x00\x00\x00\x00\x00\x00\x00\x00\x00\x00\x00\x00\x00\x00\x00\x00\x00\x00\x00\x00\x00\x00\x00\x00\x00\x00\x00\x00\x00\x00\x00\x00\x00\x00\x00\x00\x00\x00\x00\x00\x00\x00\x00\x00\x00\x00\x00\x00\x00\x00\x00\x00\x00\x00\x00\x00\x00\x00\x00\x00\x00\x00\x00\x00\x00\x00\x00\x00\x00\x00\x00\x00\x00\x00\x00\x00\x00\x00\x00\x00\x00\x00\x00\x00\x00\x00\x00\x00\x00\x00\x00\x00\x00\x00\x00\x00\x00\x00\x00\x00\x00\x00\x00\x00\x00\x00\x00\x00\x00\x00\x00\x00\x00\x00\x00\x00\x00\x00\x00\x00\x00\x00\x00\x00\x00\x00\x00\x00\x00\x00\x00\x00\x00\x00\x00\x00\x00\x00\x00\x00\x00\x00\x00\x00\x00\x00\x00\x00\x00\x00\x00\x00\x00\x00\x00\x00\x00\x00\x00\x00\x00\x00\x00\x00\x00\x00\x00\x00\x00\x00\x00\x00\x00\x00\x00\x00\x00\x00\x00\x00\x00\x00\x00\x00\x00\x00\x00\x00\x00\x00\x00\x00\x00\x00\x00\x00\x00\x00\x00\x00\x00\x00\x00\x00\x00\x00\x00\x00\x00\x00\x00\x00\x00\x00\x00\x00\x00\x00\x00\x00\x00\x00\x00\x00\x00\x00\x00\x00\x00\x00\x00\x00\x00\x00\x00\x00\x00\x00\x00\x00\x00\x00\x00\x00\x00\x00\x00\x00\x00\x00\x00\x00\x00\x00\x00\x00\x00\x00\x00\x00\x00\x00\x00\x00\x00\x00\x00\x00\x00\x00\x00\x00\x00\x00\x00\x00\x00\x00\x00\x00\x00\x00\x00\x00\x00\x00\x00\x00\x00\x00\x00\x00\x00\x00\x00\x00\x00\x00\x00\x00\x00\x00\x00\x00\x00'
p1263
S'\x00\x00\x00\x00\x00\x00\x00\x00\x00\x00\x00\x00\x00\x00\x00\x00\x00\x00\x00\x00\x00\x00\x00\x00\x00\x00\x00\x00\x00\x00\x00\x00\x00\x00\x00\x00\x00\x00\x00\x00\x00\x00\x00\x00\x00\x00\x00\x00\x00\x00\x00\x00\x00\x00\x00\x00\x00\x00\x00\x00\x00\x00\x00\x00\x00\x00\x00\x00\x00\x00\x00\x00\x00\x00\x00\x00\x00\x00\x00\x00\x00\x00\x00\x00\x00\x00\x00\x00\x00\x00\x00\x00\x00\x00\x00\x00'
p1264
Ntp1265
bsg24
g1038
(g1039
g1040
g1041
g1042
tp1266
Rp1267
(I1
(I96
I1
tp1268
g1048
I00
S'\x00\x80wF\x00^\x8fF\x00\xe8\xa2F\x00X\xb6F\x00\xfa\xc9F\x00j\xddF\x00\x08\xf1F\x00I\x02G\x00\x0e\x0cG\x00\xd2\x15G\x00\x8a\x1fG\x00J)G\x00\x0f3G\x00\xe3<G\x00\x97FG\x00[PG\x00 ZG\x00\xe3cG\x00\xa8mG\x00pwG\x80\x99\x80G\x00z\x85G\x00]\x8aG\x00?\x8fG\x80!\x94G\x00\x03\x99G\x80\xe5\x9dG\x00\xc8\xa2G\x00\xaa\xa7G\x00\x8c\xacG\x80m\xb1G\x00P\xb6G\x002\xbbG\x00\x14\xc0G\x00\xf6\xc4G\x80\xd8\xc9G\x80\xba\xceG\x80\x9c\xd3G\x80~\xd8G\x00a\xddG\x80C\xe2G\x00%\xe7G\x80\x07\xecG\x80\xea\xf0G\x00\xcd\xf5G\x00\xaf\xfaG\x80\x90\xffG\x009\x02H@\xaa\x04H@\x1b\x07H\x80\x8c\tH\xc0\xfd\x0bH\x80n\x0eH@\xe0\x10H\x00Q\x13H\xc0\xc1\x15H\xc02\x18H@\xa4\x1aH\x00\x15\x1dH@\x86\x1fH@\xf7!H@h$H\x80\xd9&H\x80J)H\x80\xbb+H\x80,.H\x80\x990H\x80\n3H\xc0{5H\xc0\xec7H\xc0]:H\xc0\xce<H@@?H\x00\xb1AH\x00"DH@\x93FH@\x04IH\x80uKH\xc0\xe6MH@WPH\x80\xc9RH\x809UH\xc0\xaaWH\xc0\x1bZH\x80\x8d\\H@\xfe^H\x80oaH\x80\xe1cH\x80QfH\x00\xc2hH\x803kH\xc0\xa4mH\x80\x15pH\x80\x86rH@\xf8tH\xc0hwH'
p1269
S'\x00\x00\x00\x00\x00\x00\x00\x00\x00\x00\x00\x00\x00\x00\x00\x00\x00\x00\x00\x00\x00\x00\x00\x00\x00\x00\x00\x00\x00\x00\x00\x00\x00\x00\x00\x00\x00\x00\x00\x00\x00\x00\x00\x00\x00\x00\x00\x00\x00\x00\x00\x00\x00\x00\x00\x00\x00\x00\x00\x00\x00\x00\x00\x00\x00\x00\x00\x00\x00\x00\x00\x00\x00\x00\x00\x00\x00\x00\x00\x00\x00\x00\x00\x00\x00\x00\x00\x00\x00\x00\x00\x00\x00\x00\x00\x00'
p1270
Ntp1271
bsg25
g1038
(g1039
g1040
g1041
g1042
tp1272
Rp1273
(I1
(I96
I1
tp1274
g1048
I00
S'\x00\x00\xfaC\x00\x00\xfaC\x00\x00\xfaC\x00\x00\xfaC\x00\x00\xfaC\x00\x00\xfaC\x00\x00\xfaC\x00\x00\xfaC\x00\x00\xfaC\x00\x00\xfaC\x00\x00\xfaC\x00\x00\xfaC\x00\x00\xfaC\x00\x00\xfaC\x00\x00\xfaC\x00\x00\xfaC\x00\x00\xfaC\x00\x00\xfaC\x00\x00\xfaC\x00\x00\xfaC\x00\x00\xfaC\x00\x00\xfaC\x00\x00\xfaC\x00\x00\xfaC\x00\x00\xfaC\x00\x00\xfaC\x00\x00\xfaC\x00\x00\xfaC\x00\x00\xfaC\x00\x00\xfaC\x00\x00\xfaC\x00\x00\xfaC\x00\x00\xfaC\x00\x00\xfaC\x00\x00\xfaC\x00\x00\xfaC\x00\x00\xfaC\x00\x00\xfaC\x00\x00\xfaC\x00\x00\xfaC\x00\x00\xfaC\x00\x00\xfaC\x00\x00\xfaC\x00\x00\xfaC\x00\x00\xfaC\x00\x00\xfaC\x00\x00\xfaC\x00\x00\xfaC\x00\x00\xfaC\x00\x00\xfaC\x00\x00\xfaC\x00\x00\xfaC\x00\x00\xfaC\x00\x00\xfaC\x00\x00\xfaC\x00\x00\xfaC\x00\x00\xfaC\x00\x00\xfaC\x00\x00\xfaC\x00\x00\xfaC\x00\x00\xfaC\x00\x00\xfaC\x00\x00\xfaC\x00\x00\xfaC\x00\x00\xfaC\x00\x00\xfaC\x00\x00\xfaC\x00\x00\xfaC\x00\x00\xfaC\x00\x00\xfaC\x00\x00\xfaC\x00\x00\xfaC\x00\x00\xfaC\x00\x00\xfaC\x00\x00\xfaC\x00\x00\xfaC\x00\x00\xfaC\x00\x00\xfaC\x00\x00\xfaC\x00\x00\xfaC\x00\x00\xfaC\x00\x00\xfaC\x00\x00\xfaC\x00\x00\xfaC\x00\x00\xfaC\x00\x00\xfaC\x00\x00\xfaC\x00\x00\xfaC\x00\x00\xfaC\x00\x00\xfaC\x00\x00\xfaC\x00\x00\xfaC\x00\x00\xfaC\x00\x00\xfaC\x00\x00\xfaC\x00\x00\xfaC'
p1275
S'\x00\x00\x00\x00\x00\x00\x00\x00\x00\x00\x00\x00\x00\x00\x00\x00\x00\x00\x00\x00\x00\x00\x00\x00\x00\x00\x00\x00\x00\x00\x00\x00\x00\x00\x00\x00\x00\x00\x00\x00\x00\x00\x00\x00\x00\x00\x00\x00\x00\x00\x00\x00\x00\x00\x00\x00\x00\x00\x00\x00\x00\x00\x00\x00\x00\x00\x00\x00\x00\x00\x00\x00\x00\x00\x00\x00\x00\x00\x00\x00\x00\x00\x00\x00\x00\x00\x00\x00\x00\x00\x00\x00\x00\x00\x00\x00'
p1276
Ntp1277
bsg26
g1038
(g1039
g1040
g1041
g1042
tp1278
Rp1279
(I1
(I96
I1
tp1280
g1048
I00
S'\x00\x80\x7fF\x00F\x93F\x00\xce\xa6F\x00V\xbaF\x00\xde\xcdF\x00R\xe1F\x00\xf0\xf4F\x00>\x04G\x00\xf3\rG\x00\xc5\x17G\x00\x8f!G\x00>+G\x00\x035G\x00\xca>G\x00\x8aHG\x00NRG\x00\x14\\G\x00\xd7eG\x00\x9coG\x00`yG\x00\x92\x81G\x80t\x86G\x80V\x8bG\x808\x90G\x80\x1a\x95G\x00\xfd\x99G\x00\xdf\x9eG\x80\xc1\xa3G\x80\xa3\xa8G\x80\x85\xadG\x80g\xb2G\x80I\xb7G\x00,\xbcG\x00\x0e\xc1G\x80\xf0\xc5G\x80\xd2\xcaG\x80\xb4\xcfG\x80\xa0\xd4G\x80x\xd9G\x80Z\xdeG\x00=\xe3G\x80\x1f\xe8G\x00\x01\xedG\x80\xe3\xf1G\x00\xc6\xf6G\x00\xa9\xfbG\x00E\x00H\xc0\xb5\x02H\x00\'\x05H@\x98\x07H\x00\t\nH\x80z\x0cH\x80\xeb\x0eH\x80\\\x11H\xc0\xcd\x13H\xc0>\x16H\xc0\xaf\x18H\x00!\x1bH\x00\x92\x1dH@\x03 H@t"H\x00\xe5$H@V\'H@\xc7)H@8,H\x80\xa9.H\x80\x161H\x80\x873H\x80\xf85H\xc0i8H\xc0\xe6:H\xc0K=H\x00\xbd?H\x00.BH\x00\x9fDH\x00\x10GH\x00\x81IH\x00\xf2KH\xc0cNH@\xd4PH\x80ESH\x80\xb6UH\xc0\'XH\x80\x98ZH@\n]H\x00{_H@\xecaH\x00]dH\x80\xcffH@?iH@\xb0kH@!nH@\x92pH\x00\x04sH\xc0uuH\xc0\xe5wH'
p1281
S'\x00\x00\x00\x00\x00\x00\x00\x00\x00\x00\x00\x00\x00\x00\x00\x00\x00\x00\x00\x00\x00\x00\x00\x00\x00\x00\x00\x00\x00\x00\x00\x00\x00\x00\x00\x00\x00\x00\x00\x00\x00\x00\x00\x00\x00\x00\x00\x00\x00\x00\x00\x00\x00\x00\x00\x00\x00\x00\x00\x00\x00\x00\x00\x00\x00\x00\x00\x00\x00\x00\x00\x00\x00\x00\x00\x00\x00\x00\x00\x00\x00\x00\x00\x00\x00\x00\x00\x00\x00\x00\x00\x00\x00\x00\x00\x00'
p1282
Ntp1283
bsg15
g1038
(g1039
g1040
g1041
g1042
tp1284
Rp1285
(I1
(I96
I1
tp1286
g1048
I00
S'\x00\x00\x00\x00\x00\x00\x00\x00\x00\x00\x00\x00\x00\x00\x00\x00\x00\x00\x00\x00\x00\x00\x00\x00\x00\x00\x00\x00\x00\x00\x00\x00\x00\x00\x00\x00\x00\x00\x00\x00\x00\x00\x00\x00\x00\x00\x00\x00\x00\x00\x00\x00\x00\x00\x00\x00\x00\x00\x00\x00\x00\x00\x00\x00\x00\x00\x00\x00\x00\x00\x00\x00\x00\x00\x00\x00\x00\x00\x00\x00\x00\x00\x00\x00\x00\x00\x00\x00\x00\x00\x00\x00\x00\x00\x00\x00\x00\x00\x00\x00\x00\x00\x00\x00\x00\x00\x00\x00\x00\x00\x00\x00\x00\x00\x00\x00\x00\x00\x00\x00\x00\x00\x00\x00\x00\x00\x00\x00\x00\x00\x00\x00\x00\x00\x00\x00\x00\x00\x00\x00\x00\x00\x00\x00\x00\x00\x00\x00\x00\x00\x00\x00\x00\x00\x00\x00\x00\x00\x00\x00\x00\x00\x00\x00\x00\x00\x00\x00\x00\x00\x00\x00\x00\x00\x00\x00\x00\x00\x00\x00\x00\x00\x00\x00\x00\x00\x00\x00\x00\x00\x00\x00\x00\x00\x00\x00\x00\x00\x00\x00\x00\x00\x00\x00\x00\x00\x00\x00\x00\x00\x00\x00\x00\x00\x00\x00\x00\x00\x00\x00\x00\x00\x00\x00\x00\x00\x00\x00\x00\x00\x00\x00\x00\x00\x00\x00\x00\x00\x00\x00\x00\x00\x00\x00\x00\x00\x00\x00\x00\x00\x00\x00\x00\x00\x00\x00\x00\x00\x00\x00\x00\x00\x00\x00\x00\x00\x00\x00\x00\x00\x00\x00\x00\x00\x00\x00\x00\x00\x00\x00\x00\x00\x00\x00\x00\x00\x00\x00\x00\x00\x00\x00\x00\x00\x00\x00\x00\x00\x00\x00\x00\x00\x00\x00\x00\x00\x00\x00\x00\x00\x00\x00\x00\x00\x00\x00\x00\x00\x00\x00\x00\x00\x00\x00\x00\x00\x00\x00\x00\x00\x00\x00\x00\x00\x00\x00\x00\x00\x00\x00\x00\x00\x00\x00\x00\x00\x00\x00\x00\x00\x00\x00\x00\x00\x00\x00\x00\x00\x00\x00\x00\x00\x00\x00\x00\x00\x00\x00\x00\x00\x00\x00\x00\x00\x00\x00\x00\x00\x00\x00\x00\x00\x00\x00'
p1287
S'\x00\x00\x00\x00\x00\x00\x00\x00\x00\x00\x00\x00\x00\x00\x00\x00\x00\x00\x00\x00\x00\x00\x00\x00\x00\x00\x00\x00\x00\x00\x00\x00\x00\x00\x00\x00\x00\x00\x00\x00\x00\x00\x00\x00\x00\x00\x00\x00\x00\x00\x00\x00\x00\x00\x00\x00\x00\x00\x00\x00\x00\x00\x00\x00\x00\x00\x00\x00\x00\x00\x00\x00\x00\x00\x00\x00\x00\x00\x00\x00\x00\x00\x00\x00\x00\x00\x00\x00\x00\x00\x00\x00\x00\x00\x00\x00'
p1288
Ntp1289
bsg1145
g1038
(g1039
g1040
g1041
g1042
tp1290
Rp1291
(I1
(I96
I1
tp1292
g1048
I00
S'\x00\x00\x00\x00\x00\x00\x80?\x00\x00\x00@\x00\x00@@\x00\x00\x80@\x00\x00\xa0@\x00\x00\xc0@\x00\x00\xe0@\x00\x00\x00A\x00\x00\x10A\x00\x00 A\x00\x000A\x00\x00@A\x00\x00PA\x00\x00`A\x00\x00pA\x00\x00\x80A\x00\x00\x88A\x00\x00\x90A\x00\x00\x98A\x00\x00\xa0A\x00\x00\xa8A\x00\x00\xb0A\x00\x00\xb8A\x00\x00\xc0A\x00\x00\xc8A\x00\x00\xd0A\x00\x00\xd8A\x00\x00\xe0A\x00\x00\xe8A\x00\x00\xf0A\x00\x00\xf8A\x00\x00\x00B\x00\x00\x04B\x00\x00\x08B\x00\x00\x0cB\x00\x00\x10B\x00\x00\x14B\x00\x00\x18B\x00\x00\x1cB\x00\x00 B\x00\x00$B\x00\x00(B\x00\x00,B\x00\x000B\x00\x004B\x00\x008B\x00\x00<B\x00\x00@B\x00\x00DB\x00\x00HB\x00\x00LB\x00\x00PB\x00\x00TB\x00\x00XB\x00\x00\\B\x00\x00`B\x00\x00dB\x00\x00hB\x00\x00lB\x00\x00pB\x00\x00tB\x00\x00xB\x00\x00|B\x00\x00\x80B\x00\x00\x82B\x00\x00\x84B\x00\x00\x86B\x00\x00\x88B\x00\x00\x8aB\x00\x00\x8cB\x00\x00\x8eB\x00\x00\x90B\x00\x00\x92B\x00\x00\x94B\x00\x00\x96B\x00\x00\x98B\x00\x00\x9aB\x00\x00\x9cB\x00\x00\x9eB\x00\x00\xa0B\x00\x00\xa2B\x00\x00\xa4B\x00\x00\xa6B\x00\x00\xa8B\x00\x00\xaaB\x00\x00\xacB\x00\x00\xaeB\x00\x00\xb0B\x00\x00\xb2B\x00\x00\xb4B\x00\x00\xb6B\x00\x00\xb8B\x00\x00\xbaB\x00\x00\xbcB\x00\x00\xbeB'
p1293
S'\x00\x00\x00\x00\x00\x00\x00\x00\x00\x00\x00\x00\x00\x00\x00\x00\x00\x00\x00\x00\x00\x00\x00\x00\x00\x00\x00\x00\x00\x00\x00\x00\x00\x00\x00\x00\x00\x00\x00\x00\x00\x00\x00\x00\x00\x00\x00\x00\x00\x00\x00\x00\x00\x00\x00\x00\x00\x00\x00\x00\x00\x00\x00\x00\x00\x00\x00\x00\x00\x00\x00\x00\x00\x00\x00\x00\x00\x00\x00\x00\x00\x00\x00\x00\x00\x00\x00\x00\x00\x00\x00\x00\x00\x00\x00\x00'
p1294
Ntp1295
bsg27
g1038
(g1039
g1040
g1041
g1042
tp1296
Rp1297
(I1
(I96
I1
tp1298
g1048
I00
S'\x00\x80\x7fF\x00F\x93F\x00\xce\xa6F\x00X\xbaF\x00\xde\xcdF\x00R\xe1F\x00\xf0\xf4F\x00>\x04G\x00\xf3\rG\x00\xc5\x17G\x00\x8f!G\x00>+G\x00\x035G\x00\xca>G\x00\x8aHG\x00NRG\x00\x14\\G\x00\xd7eG\x00\x9coG\x00`yG\x80\x92\x81G\x80t\x86G\x80V\x8bG\x808\x90G\x00\x1b\x95G\x00\xfd\x99G\x00\xdf\x9eG\x80\xc1\xa3G\x80\xa3\xa8G\x80\x85\xadG\x80g\xb2G\x80I\xb7G\x00,\xbcG\x00\x0e\xc1G\x80\xf0\xc5G\x80\xd2\xcaG\x80\xb4\xcfG\x80\xa0\xd4G\x00y\xd9G\x80Z\xdeG\x00=\xe3G\x80\x1f\xe8G\x00\x01\xedG\x00\xe4\xf1G\x00\xc6\xf6G\x00\xa9\xfbG\x00E\x00H\xc0\xb5\x02H\x00\'\x05H@\x98\x07H\x00\t\nH\x80z\x0cH\x80\xeb\x0eH\x80\\\x11H\xc0\xcd\x13H\xc0>\x16H\xc0\xaf\x18H\x00!\x1bH\x00\x92\x1dH@\x03 H@t"H@\xe5$H@V\'H@\xc7)H@8,H\xc0\xa9.H\x80\x161H\x80\x873H\x80\xf85H\xc0i8H\xc0\xe6:H\xc0K=H\x00\xbd?H\x00.BH\x00\x9fDH\x00\x10GH\x00\x81IH\x00\xf2KH\xc0cNH@\xd4PH\x80ESH\x80\xb6UH\xc0\'XH\x80\x98ZH@\n]H\x00{_H@\xecaH\x00]dH\x80\xcffH@?iH@\xb0kH\x80!nH@\x92pH\x00\x04sH\xc0uuH\xc0\xe5wH'
p1299
S'\x00\x00\x00\x00\x00\x00\x00\x00\x00\x00\x00\x00\x00\x00\x00\x00\x00\x00\x00\x00\x00\x00\x00\x00\x00\x00\x00\x00\x00\x00\x00\x00\x00\x00\x00\x00\x00\x00\x00\x00\x00\x00\x00\x00\x00\x00\x00\x00\x00\x00\x00\x00\x00\x00\x00\x00\x00\x00\x00\x00\x00\x00\x00\x00\x00\x00\x00\x00\x00\x00\x00\x00\x00\x00\x00\x00\x00\x00\x00\x00\x00\x00\x00\x00\x00\x00\x00\x00\x00\x00\x00\x00\x00\x00\x00\x00'
p1300
Ntp1301
bstp1302
Rp1303
(dp1304
g1161
(dp1305
g17
I01
sg21
I01
sg16
I00
sg1066
I01
sg22
I01
sg28
I01
sg23
I01
sg18
I01
sg24
I01
sg25
I01
sg19
I01
sg26
I01
sg20
I01
sg15
I01
sg14
I00
sg1145
I01
sg27
I01
ssg1163
g1195
sg1164
(lp1306
g1066
ag1145
ag14
ag15
ag16
ag17
ag18
ag19
ag20
ag21
ag22
ag23
ag24
ag25
ag26
ag27
ag28
asg1166
(lp1307
I96
aI1
asbsg1168
g1169
sg1170
g1054
(g1040
(I0
tp1308
g1042
tp1309
Rp1310
(I1
(I96
I1
tp1311
g126
I00
S'\x00\x00\x00\x00\x00\x00\x00\x00\x01\x00\x00\x00\x00\x00\x00\x00\x02\x00\x00\x00\x00\x00\x00\x00\x03\x00\x00\x00\x00\x00\x00\x00\x04\x00\x00\x00\x00\x00\x00\x00\x05\x00\x00\x00\x00\x00\x00\x00\x06\x00\x00\x00\x00\x00\x00\x00\x07\x00\x00\x00\x00\x00\x00\x00\x08\x00\x00\x00\x00\x00\x00\x00\t\x00\x00\x00\x00\x00\x00\x00\n\x00\x00\x00\x00\x00\x00\x00\x0b\x00\x00\x00\x00\x00\x00\x00\x0c\x00\x00\x00\x00\x00\x00\x00\r\x00\x00\x00\x00\x00\x00\x00\x0e\x00\x00\x00\x00\x00\x00\x00\x0f\x00\x00\x00\x00\x00\x00\x00\x10\x00\x00\x00\x00\x00\x00\x00\x11\x00\x00\x00\x00\x00\x00\x00\x12\x00\x00\x00\x00\x00\x00\x00\x13\x00\x00\x00\x00\x00\x00\x00\x14\x00\x00\x00\x00\x00\x00\x00\x15\x00\x00\x00\x00\x00\x00\x00\x16\x00\x00\x00\x00\x00\x00\x00\x17\x00\x00\x00\x00\x00\x00\x00\x18\x00\x00\x00\x00\x00\x00\x00\x19\x00\x00\x00\x00\x00\x00\x00\x1a\x00\x00\x00\x00\x00\x00\x00\x1b\x00\x00\x00\x00\x00\x00\x00\x1c\x00\x00\x00\x00\x00\x00\x00\x1d\x00\x00\x00\x00\x00\x00\x00\x1e\x00\x00\x00\x00\x00\x00\x00\x1f\x00\x00\x00\x00\x00\x00\x00 \x00\x00\x00\x00\x00\x00\x00!\x00\x00\x00\x00\x00\x00\x00"\x00\x00\x00\x00\x00\x00\x00#\x00\x00\x00\x00\x00\x00\x00$\x00\x00\x00\x00\x00\x00\x00%\x00\x00\x00\x00\x00\x00\x00&\x00\x00\x00\x00\x00\x00\x00\'\x00\x00\x00\x00\x00\x00\x00(\x00\x00\x00\x00\x00\x00\x00)\x00\x00\x00\x00\x00\x00\x00*\x00\x00\x00\x00\x00\x00\x00+\x00\x00\x00\x00\x00\x00\x00,\x00\x00\x00\x00\x00\x00\x00-\x00\x00\x00\x00\x00\x00\x00.\x00\x00\x00\x00\x00\x00\x00/\x00\x00\x00\x00\x00\x00\x000\x00\x00\x00\x00\x00\x00\x001\x00\x00\x00\x00\x00\x00\x002\x00\x00\x00\x00\x00\x00\x003\x00\x00\x00\x00\x00\x00\x004\x00\x00\x00\x00\x00\x00\x005\x00\x00\x00\x00\x00\x00\x006\x00\x00\x00\x00\x00\x00\x007\x00\x00\x00\x00\x00\x00\x008\x00\x00\x00\x00\x00\x00\x009\x00\x00\x00\x00\x00\x00\x00:\x00\x00\x00\x00\x00\x00\x00;\x00\x00\x00\x00\x00\x00\x00<\x00\x00\x00\x00\x00\x00\x00=\x00\x00\x00\x00\x00\x00\x00>\x00\x00\x00\x00\x00\x00\x00?\x00\x00\x00\x00\x00\x00\x00@\x00\x00\x00\x00\x00\x00\x00A\x00\x00\x00\x00\x00\x00\x00B\x00\x00\x00\x00\x00\x00\x00C\x00\x00\x00\x00\x00\x00\x00D\x00\x00\x00\x00\x00\x00\x00E\x00\x00\x00\x00\x00\x00\x00F\x00\x00\x00\x00\x00\x00\x00G\x00\x00\x00\x00\x00\x00\x00H\x00\x00\x00\x00\x00\x00\x00I\x00\x00\x00\x00\x00\x00\x00J\x00\x00\x00\x00\x00\x00\x00K\x00\x00\x00\x00\x00\x00\x00L\x00\x00\x00\x00\x00\x00\x00M\x00\x00\x00\x00\x00\x00\x00N\x00\x00\x00\x00\x00\x00\x00O\x00\x00\x00\x00\x00\x00\x00P\x00\x00\x00\x00\x00\x00\x00Q\x00\x00\x00\x00\x00\x00\x00R\x00\x00\x00\x00\x00\x00\x00S\x00\x00\x00\x00\x00\x00\x00T\x00\x00\x00\x00\x00\x00\x00U\x00\x00\x00\x00\x00\x00\x00V\x00\x00\x00\x00\x00\x00\x00W\x00\x00\x00\x00\x00\x00\x00X\x00\x00\x00\x00\x00\x00\x00Y\x00\x00\x00\x00\x00\x00\x00Z\x00\x00\x00\x00\x00\x00\x00[\x00\x00\x00\x00\x00\x00\x00\\\x00\x00\x00\x00\x00\x00\x00]\x00\x00\x00\x00\x00\x00\x00^\x00\x00\x00\x00\x00\x00\x00_\x00\x00\x00\x00\x00\x00\x00'
p1312
tp1313
bsg1177
I01
sg1178
I1
sg1179
I-1
sg1180
(lp1314
g0
(g1182
g1036
(dp1315
g156
g157
sg145
g146
sg153
g154
sg159
g147
stp1316
Rp1317
ag0
(g1182
g1036
(dp1318
g156
g168
sg145
g161
sg153
g154
sg159
g147
stp1319
Rp1320
ag0
(g1182
g1036
(dp1321
g156
g179
sg145
g171
sg153
g154
sg159
g172
stp1322
Rp1323
ag0
(g1182
g1036
(dp1324
g156
g189
sg145
g182
sg153
g154
sg159
g172
stp1325
Rp1326
ag0
(g1182
g1036
(dp1327
g156
g199
sg145
g192
sg153
g154
sg159
g147
stp1328
Rp1329
ag0
(g1182
g1036
(dp1330
g156
g208
sg145
g182
sg153
g154
sg159
g172
stp1331
Rp1332
ag0
(g1182
g1036
(dp1333
g156
g218
sg145
g211
sg153
g154
sg159
g172
stp1334
Rp1335
ag0
(g1182
g1036
(dp1336
g156
g228
sg145
g221
sg153
g154
sg159
g147
stp1337
Rp1338
ag0
(g1182
g1036
(dp1339
g156
g237
sg145
g171
sg153
g154
sg159
g172
stp1340
Rp1341
ag0
(g1182
g1036
(dp1342
g156
g247
sg145
g240
sg153
g154
sg159
g172
stp1343
Rp1344
ag0
(g1182
g1036
(dp1345
g156
g256
sg145
g211
sg153
g154
sg159
g172
stp1346
Rp1347
ag0
(g1182
g1036
(dp1348
g156
g265
sg145
g161
sg153
g154
sg159
g147
stp1349
Rp1350
ag0
(g1182
g1036
(dp1351
g156
g274
sg145
g240
sg153
g154
sg159
g172
stp1352
Rp1353
ag0
(g1182
g1036
(dp1354
g156
g283
sg145
g221
sg153
g154
sg159
g147
stp1355
Rp1356
ag0
(g1182
g1036
(dp1357
g156
g292
sg145
g192
sg153
g154
sg159
g147
stp1358
Rp1359
ag0
(g1182
g1036
(dp1360
g156
g301
sg145
g146
sg153
g154
sg159
g147
stp1361
Rp1362
ag0
(g1182
g1036
(dp1363
g156
g310
sg145
g146
sg153
g154
sg159
g147
stp1364
Rp1365
ag0
(g1182
g1036
(dp1366
g156
g319
sg145
g161
sg153
g154
sg159
g147
stp1367
Rp1368
ag0
(g1182
g1036
(dp1369
g156
g328
sg145
g182
sg153
g154
sg159
g172
stp1370
Rp1371
ag0
(g1182
g1036
(dp1372
g156
g337
sg145
g192
sg153
g154
sg159
g147
stp1373
Rp1374
ag0
(g1182
g1036
(dp1375
g156
g346
sg145
g221
sg153
g154
sg159
g147
stp1376
Rp1377
ag0
(g1182
g1036
(dp1378
g156
g355
sg145
g211
sg153
g154
sg159
g172
stp1379
Rp1380
ag0
(g1182
g1036
(dp1381
g156
g364
sg145
g211
sg153
g154
sg159
g172
stp1382
Rp1383
ag0
(g1182
g1036
(dp1384
g156
g373
sg145
g240
sg153
g154
sg159
g172
stp1385
Rp1386
ag0
(g1182
g1036
(dp1387
g156
g382
sg145
g146
sg153
g154
sg159
g147
stp1388
Rp1389
ag0
(g1182
g1036
(dp1390
g156
g391
sg145
g171
sg153
g154
sg159
g172
stp1391
Rp1392
ag0
(g1182
g1036
(dp1393
g156
g400
sg145
g221
sg153
g154
sg159
g147
stp1394
Rp1395
ag0
(g1182
g1036
(dp1396
g156
g409
sg145
g161
sg153
g154
sg159
g147
stp1397
Rp1398
ag0
(g1182
g1036
(dp1399
g156
g418
sg145
g182
sg153
g154
sg159
g172
stp1400
Rp1401
ag0
(g1182
g1036
(dp1402
g156
g427
sg145
g192
sg153
g154
sg159
g147
stp1403
Rp1404
ag0
(g1182
g1036
(dp1405
g156
g436
sg145
g171
sg153
g154
sg159
g172
stp1406
Rp1407
ag0
(g1182
g1036
(dp1408
g156
g445
sg145
g240
sg153
g154
sg159
g172
stp1409
Rp1410
ag0
(g1182
g1036
(dp1411
g156
g454
sg145
g182
sg153
g154
sg159
g172
stp1412
Rp1413
ag0
(g1182
g1036
(dp1414
g156
g463
sg145
g211
sg153
g154
sg159
g172
stp1415
Rp1416
ag0
(g1182
g1036
(dp1417
g156
g472
sg145
g146
sg153
g154
sg159
g147
stp1418
Rp1419
ag0
(g1182
g1036
(dp1420
g156
g481
sg145
g161
sg153
g154
sg159
g147
stp1421
Rp1422
ag0
(g1182
g1036
(dp1423
g156
g490
sg145
g221
sg153
g154
sg159
g147
stp1424
Rp1425
ag0
(g1182
g1036
(dp1426
g156
g499
sg145
g211
sg153
g154
sg159
g172
stp1427
Rp1428
ag0
(g1182
g1036
(dp1429
g156
g508
sg145
g240
sg153
g154
sg159
g172
stp1430
Rp1431
ag0
(g1182
g1036
(dp1432
g156
g517
sg145
g161
sg153
g154
sg159
g147
stp1433
Rp1434
ag0
(g1182
g1036
(dp1435
g156
g526
sg145
g192
sg153
g154
sg159
g147
stp1436
Rp1437
ag0
(g1182
g1036
(dp1438
g156
g535
sg145
g171
sg153
g154
sg159
g172
stp1439
Rp1440
ag0
(g1182
g1036
(dp1441
g156
g157
sg145
g146
sg153
g154
sg159
g147
stp1442
Rp1443
ag0
(g1182
g1036
(dp1444
g156
g552
sg145
g171
sg153
g154
sg159
g172
stp1445
Rp1446
ag0
(g1182
g1036
(dp1447
g156
g561
sg145
g182
sg153
g154
sg159
g172
stp1448
Rp1449
ag0
(g1182
g1036
(dp1450
g156
g570
sg145
g192
sg153
g154
sg159
g147
stp1451
Rp1452
ag0
(g1182
g1036
(dp1453
g156
g579
sg145
g240
sg153
g154
sg159
g172
stp1454
Rp1455
ag0
(g1182
g1036
(dp1456
g156
g588
sg145
g221
sg153
g154
sg159
g147
stp1457
Rp1458
ag0
(g1182
g1036
(dp1459
g156
g597
sg145
g211
sg153
g154
sg159
g172
stp1460
Rp1461
ag0
(g1182
g1036
(dp1462
g156
g606
sg145
g221
sg153
g154
sg159
g147
stp1463
Rp1464
ag0
(g1182
g1036
(dp1465
g156
g615
sg145
g171
sg153
g154
sg159
g172
stp1466
Rp1467
ag0
(g1182
g1036
(dp1468
g156
g624
sg145
g161
sg153
g154
sg159
g147
stp1469
Rp1470
ag0
(g1182
g1036
(dp1471
g156
g633
sg145
g182
sg153
g154
sg159
g172
stp1472
Rp1473
ag0
(g1182
g1036
(dp1474
g156
g642
sg145
g146
sg153
g154
sg159
g147
stp1475
Rp1476
ag0
(g1182
g1036
(dp1477
g156
g651
sg145
g240
sg153
g154
sg159
g172
stp1478
Rp1479
ag0
(g1182
g1036
(dp1480
g156
g660
sg145
g192
sg153
g154
sg159
g147
stp1481
Rp1482
ag0
(g1182
g1036
(dp1483
g156
g669
sg145
g240
sg153
g154
sg159
g172
stp1484
Rp1485
ag0
(g1182
g1036
(dp1486
g156
g678
sg145
g146
sg153
g154
sg159
g147
stp1487
Rp1488
ag0
(g1182
g1036
(dp1489
g156
g687
sg145
g221
sg153
g154
sg159
g147
stp1490
Rp1491
ag0
(g1182
g1036
(dp1492
g156
g696
sg145
g161
sg153
g154
sg159
g147
stp1493
Rp1494
ag0
(g1182
g1036
(dp1495
g156
g705
sg145
g211
sg153
g154
sg159
g172
stp1496
Rp1497
ag0
(g1182
g1036
(dp1498
g156
g714
sg145
g171
sg153
g154
sg159
g172
stp1499
Rp1500
ag0
(g1182
g1036
(dp1501
g156
g723
sg145
g182
sg153
g154
sg159
g172
stp1502
Rp1503
ag0
(g1182
g1036
(dp1504
g156
g732
sg145
g192
sg153
g154
sg159
g147
stp1505
Rp1506
ag0
(g1182
g1036
(dp1507
g156
g741
sg145
g192
sg153
g154
sg159
g147
stp1508
Rp1509
ag0
(g1182
g1036
(dp1510
g156
g750
sg145
g146
sg153
g154
sg159
g147
stp1511
Rp1512
ag0
(g1182
g1036
(dp1513
g156
g759
sg145
g182
sg153
g154
sg159
g172
stp1514
Rp1515
ag0
(g1182
g1036
(dp1516
g156
g768
sg145
g240
sg153
g154
sg159
g172
stp1517
Rp1518
ag0
(g1182
g1036
(dp1519
g156
g777
sg145
g221
sg153
g154
sg159
g147
stp1520
Rp1521
ag0
(g1182
g1036
(dp1522
g156
g786
sg145
g171
sg153
g154
sg159
g172
stp1523
Rp1524
ag0
(g1182
g1036
(dp1525
g156
g795
sg145
g161
sg153
g154
sg159
g147
stp1526
Rp1527
ag0
(g1182
g1036
(dp1528
g156
g804
sg145
g171
sg153
g154
sg159
g172
stp1529
Rp1530
ag0
(g1182
g1036
(dp1531
g156
g813
sg145
g146
sg153
g154
sg159
g147
stp1532
Rp1533
ag0
(g1182
g1036
(dp1534
g156
g822
sg145
g221
sg153
g154
sg159
g147
stp1535
Rp1536
ag0
(g1182
g1036
(dp1537
g156
g831
sg145
g161
sg153
g154
sg159
g147
stp1538
Rp1539
ag0
(g1182
g1036
(dp1540
g156
g840
sg145
g192
sg153
g154
sg159
g147
stp1541
Rp1542
ag0
(g1182
g1036
(dp1543
g156
g849
sg145
g211
sg153
g154
sg159
g172
stp1544
Rp1545
ag0
(g1182
g1036
(dp1546
g156
g858
sg145
g182
sg153
g154
sg159
g172
stp1547
Rp1548
ag0
(g1182
g1036
(dp1549
g156
g867
sg145
g211
sg153
g154
sg159
g172
stp1550
Rp1551
ag0
(g1182
g1036
(dp1552
g156
g876
sg145
g240
sg153
g154
sg159
g172
stp1553
Rp1554
ag0
(g1182
g1036
(dp1555
g156
g885
sg145
g171
sg153
g154
sg159
g172
stp1556
Rp1557
ag0
(g1182
g1036
(dp1558
g156
g894
sg145
g182
sg153
g154
sg159
g172
stp1559
Rp1560
ag0
(g1182
g1036
(dp1561
g156
g903
sg145
g182
sg153
g154
sg159
g172
stp1562
Rp1563
ag0
(g1182
g1036
(dp1564
g156
g912
sg145
g146
sg153
g154
sg159
g147
stp1565
Rp1566
ag0
(g1182
g1036
(dp1567
g156
g921
sg145
g146
sg153
g154
sg159
g147
stp1568
Rp1569
ag0
(g1182
g1036
(dp1570
g156
g930
sg145
g161
sg153
g154
sg159
g147
stp1571
Rp1572
ag0
(g1182
g1036
(dp1573
g156
g939
sg145
g211
sg153
g154
sg159
g172
stp1574
Rp1575
ag0
(g1182
g1036
(dp1576
g156
g948
sg145
g192
sg153
g154
sg159
g147
stp1577
Rp1578
ag0
(g1182
g1036
(dp1579
g156
g957
sg145
g221
sg153
g154
sg159
g147
stp1580
Rp1581
ag0
(g1182
g1036
(dp1582
g156
g966
sg145
g240
sg153
g154
sg159
g172
stp1583
Rp1584
ag0
(g1182
g1036
(dp1585
g156
g975
sg145
g240
sg153
g154
sg159
g172
stp1586
Rp1587
ag0
(g1182
g1036
(dp1588
g156
g984
sg145
g221
sg153
g154
sg159
g147
stp1589
Rp1590
ag0
(g1182
g1036
(dp1591
g156
g993
sg145
g192
sg153
g154
sg159
g147
stp1592
Rp1593
ag0
(g1182
g1036
(dp1594
g156
g1002
sg145
g161
sg153
g154
sg159
g147
stp1595
Rp1596
ag0
(g1182
g1036
(dp1597
g156
g1011
sg145
g211
sg153
g154
sg159
g172
stp1598
Rp1599
ag0
(g1182
g1036
(dp1600
g156
g1020
sg145
g171
sg153
g154
sg159
g172
stp1601
Rp1602
asg1189
Nsg1190
g1018
sg1191
I96
sg1192
I0
sg1193
I96
sbasS'savePickle'
p1603
I00
sb.