ccopy_reg
_reconstructor
p0
(cpsychopy.data.experiment
ExperimentHandler
p1
c__builtin__
object
p2
Ntp3
Rp4
(dp5
S'originPath'
p6
NsS'dataFileName'
p7
V/Users/monica/Documents/GitHub/ABCD_nback/data/NDAR_INVABCD1234/NDAR_INVABCD1234
p8
sS'runtimeInfo'
p9
NsS'name'
p10
S'Emo_Nback_20180527'
p11
sS'dataNames'
p12
(lp13
S'Stim.RESP'
p14
aS'Stim.RT'
p15
aS'Stim.CRESP'
p16
aS'Stim.StartTime'
p17
aS'Stim.FinishTime'
p18
aS'Stim.Duration'
p19
aS'Stim.OnsetTime'
p20
aS'Fix.StartTime'
p21
aS'Stim.RTTime'
p22
aS'Stim.OffsetTime'
p23
aS'Fix.OnsetTime'
p24
aS'Fix.Duration'
p25
aS'Fix.OffsetTime'
p26
aS'Fix.FinishTime'
p27
aS'Stim.ACC'
p28
asS'autoLog'
p29
I01
sS'extraInfo'
p30
(dp31
S'Allowed'
p32
(lp33
S'1'
p34
aS'num_1'
p35
aS'left'
p36
aS'2'
p37
aS'num_2'
p38
aS'right'
p39
asS'DataFile.Basename'
p40
VEmo_Nback_20180527_v1-ABCD1234
p41
sS'Group'
p42
I1
sS'Target'
p43
I1
sS'FontStyle'
p44
S'Verdana'
p45
sS'RunNumber'
p46
I1
sVHandedness
p47
VRight
p48
sVNARGUID
p49
VABCD1234
p50
sS'SUBID'
p51
I0
sS'SessionDate'
p52
S'08/07/2018'
p53
sVVersion
p54
I1
sS'SessionTime'
p55
S'16:13:54'
p56
sS'RuntimeCapabilities'
p57
S'Professional'
p58
sS'Clock.Information'
p59
I0
sS'date'
p60
S'2018-08-07_161354'
p61
sS'RuntimeVersion'
p62
S'2.0.10.356'
p63
sS'SessionStart'
p64
S''
p65
sS'ExperimentName'
p66
g11
sS'TrialsPerRun[Session]'
p67
I160
sVDebugging
p68
I01
sVRun
p69
VAll
p70
sS'ExperimentVersion'
p71
S'1.0.0.1180'
p72
sS'ConsecNonResp[Session]'
p73
I0
sS'TotalRespGreater200[Session]'
p74
I0
sS'Nontarget'
p75
(lp76
g37
ag38
ag39
asS'StudioVersion'
p77
S'2.0.10.252'
p78
sVSession
p79
VRecMem
p80
sS'RuntimeVersionExpected'
p81
g63
sS'ConsecRTLess200[Session]'
p82
I0
sVGoggles
p83
I00
sS'StimuliDir'
p84
S'Stimuli/'
p85
sVTime Point
p86
VYear 2
p87
sS'Main.RefreshRate'
p88
cnumpy.core.multiarray
scalar
p89
(cnumpy
dtype
p90
(S'f8'
p91
I0
I1
tp92
Rp93
(I3
S'<'
p94
NNNI-1
I-1
I0
tp95
bS'x\x13M\x80\x04\xf8M@'
p96
tp97
Rp98
sS'Subject'
p99
I1
ssS'loopsUnfinished'
p100
(lp101
sS'saveWideText'
p102
I00
sS'thisEntry'
p103
(dp104
sS'version'
p105
g65
sS'_paramNamesSoFar'
p106
(lp107
S'Stimulus'
p108
aS'TargetType'
p109
aS'BlockType'
p110
aS'Stim_CRESP'
p111
asS'entries'
p112
(lp113
(dp114
g17
I3008
sg109
Vnewposface
p115
sg16
VNew
p116
sg44
g45
sg42
I1
sg64
g65
sg47
g48
sS'RecMemPractice.thisRepN'
p117
I0
sg49
g50
sg51
I0
sg23
I4953
sg52
g53
sg55
g56
sg57
g58
sg110
VRec
p118
sg14
g65
sg59
I0
sg67
I160
sg21
I4953
sg69
g70
sg73
I0
sg22
I0
sS'RecMemPractice.thisTrialN'
p119
I0
sg75
g76
sg77
g78
sg28
I0
sg79
g80
sg27
I5453
sg82
I0
sg83
I00
sg15
I0
sg86
g87
sg88
g98
sg40
g41
sg43
I1
sg108
VStimuli/PracticeRec4.bmp
p120
sg46
I1
sg32
g33
sg19
I2000
sg60
g61
sg20
I3008
sS'RecMemPractice.thisN'
p121
I0
sg81
g63
sg66
g11
sg68
I01
sg71
g72
sg62
g63
sg18
I4953
sg54
I1
sg24
I4953
sg25
I500
sg26
I5453
sg84
g85
sg74
I0
sg111
g116
sS'RecMemPractice.thisIndex'
p122
g89
(g90
(S'i8'
p123
I0
I1
tp124
Rp125
(I3
S'<'
p126
NNNI-1
I-1
I0
tp127
bS'\x00\x00\x00\x00\x00\x00\x00\x00'
p128
tp129
Rp130
sg99
I1
sa(dp131
g17
I6961
sg109
Voldposface
p132
sg16
VOld
p133
sg44
g45
sg42
I1
sg64
g65
sg47
g48
sS'RecMemPractice.thisRepN'
p134
I0
sg49
g50
sg51
I0
sg23
I8954
sg52
g53
sg55
g56
sg57
g58
sg110
g118
sg14
g65
sg59
I0
sg67
I160
sg21
I8954
sg69
g70
sg73
I0
sg22
I0
sS'RecMemPractice.thisTrialN'
p135
I1
sg75
g76
sg77
g78
sg28
I0
sg79
g80
sg27
I9453
sg82
I0
sg83
I00
sg15
I0
sg86
g87
sg88
g98
sg40
g41
sg43
I1
sg108
VStimuli/PracticeHO2.bmp
p136
sg46
I1
sg32
g33
sg19
I2000
sg60
g61
sg20
I6962
sS'RecMemPractice.thisN'
p137
I1
sg81
g63
sg66
g11
sg68
I01
sg71
g72
sg62
g63
sg18
I8954
sg54
I1
sg24
I8954
sg25
I500
sg26
I9453
sg84
g85
sg74
I0
sg111
g133
sS'RecMemPractice.thisIndex'
p138
g89
(g125
S'\x01\x00\x00\x00\x00\x00\x00\x00'
p139
tp140
Rp141
sg99
I1
sa(dp142
g17
I15864
sS'TargetType'
p143
Vnewneutface
p144
sg16
VNew
p145
sg44
g45
sg42
I1
sS'RecMemTask.thisN'
p146
I0
sg64
g65
sg47
g48
sg49
g50
sg51
I0
sg23
I17873
sg52
g53
sg55
g56
sg57
g58
sS'RecMemTask.thisIndex'
p147
g89
(g125
S'\x00\x00\x00\x00\x00\x00\x00\x00'
p148
tp149
Rp150
sS'BlockType'
p151
VRec
p152
sg14
g65
sg59
I0
sg67
I160
sg21
I17873
sg69
g70
sg73
I0
sg22
I0
sg75
g76
sg77
g78
sg28
I0
sg79
g80
sg27
I18370
sg82
I0
sg83
I00
sg15
I0
sg86
g87
sg88
g98
sS'RecMemTask.thisTrialN'
p153
I0
sg40
g41
sg43
I1
sS'Stimulus'
p154
VStimuli/AF219_NC.bmp
p155
sg46
I1
sg32
g33
sg19
I2000
sg60
g61
sg20
I15865
sg66
g11
sS'RecMemTask.thisRepN'
p156
I0
sg68
I01
sg71
g72
sg62
g63
sg18
I17873
sg54
I1
sg24
I17873
sg25
I500
sg26
I18370
sg84
g85
sg74
I0
sS'Stim_CRESP'
p157
g145
sg81
g63
sg99
I1
sa(dp158
g17
I18379
sg143
Vnewplace
p159
sg16
g145
sg44
g45
sg42
I1
sS'RecMemTask.thisN'
p160
I1
sg64
g65
sg47
g48
sg49
g50
sg51
I0
sg23
I20360
sg52
g53
sg55
g56
sg57
g58
sS'RecMemTask.thisIndex'
p161
g89
(g125
S'\x01\x00\x00\x00\x00\x00\x00\x00'
p162
tp163
Rp164
sg151
g152
sg14
g65
sg59
I0
sg67
I160
sg21
I20360
sg69
g70
sg73
I0
sg22
I0
sg75
g76
sg77
g78
sg28
I0
sg79
g80
sg27
I20860
sg82
I0
sg83
I00
sg15
I0
sg86
g87
sg88
g98
sS'RecMemTask.thisTrialN'
p165
I1
sg40
g41
sg43
I1
sg154
VStimuli/PL_056_TUFTS02BW.bmp
p166
sg46
I1
sg32
g33
sg19
I2000
sg60
g61
sg20
I18379
sg66
g11
sS'RecMemTask.thisRepN'
p167
I0
sg68
I01
sg71
g72
sg62
g63
sg18
I20360
sg54
I1
sg24
I20360
sg25
I500
sg26
I20860
sg84
g85
sg74
I0
sg157
g145
sg81
g63
sg99
I1
sa(dp168
g17
I20868
sg143
Voldneutface
p169
sg16
VOld
p170
sg44
g45
sg42
I1
sS'RecMemTask.thisN'
p171
I2
sg64
g65
sg47
g48
sg49
g50
sg51
I0
sg23
I22862
sg52
g53
sg55
g56
sg57
g58
sS'RecMemTask.thisIndex'
p172
g89
(g125
S'\x02\x00\x00\x00\x00\x00\x00\x00'
p173
tp174
Rp175
sg151
g152
sg14
g65
sg59
I0
sg67
I160
sg21
I22862
sg69
g70
sg73
I0
sg22
I0
sg75
g76
sg77
g78
sg28
I0
sg79
g80
sg27
I23375
sg82
I0
sg83
I00
sg15
I0
sg86
g87
sg88
g98
sS'RecMemTask.thisTrialN'
p176
I2
sg40
g41
sg43
I1
sg154
VStimuli/AM228_NC.bmp
p177
sg46
I1
sg32
g33
sg19
I2000
sg60
g61
sg20
I20868
sg66
g11
sS'RecMemTask.thisRepN'
p178
I0
sg68
I01
sg71
g72
sg62
g63
sg18
I22862
sg54
I1
sg24
I22862
sg25
I500
sg26
I23375
sg84
g85
sg74
I0
sg157
g170
sg81
g63
sg99
I1
sa(dp179
g17
I23381
sg143
Voldplace
p180
sg16
g170
sg44
g45
sg42
I1
sS'RecMemTask.thisN'
p181
I3
sg64
g65
sg47
g48
sg49
g50
sg51
I0
sg23
I25360
sg52
g53
sg55
g56
sg57
g58
sS'RecMemTask.thisIndex'
p182
g89
(g125
S'\x03\x00\x00\x00\x00\x00\x00\x00'
p183
tp184
Rp185
sg151
g152
sg14
g65
sg59
I0
sg67
I160
sg21
I25360
sg69
g70
sg73
I0
sg22
I0
sg75
g76
sg77
g78
sg28
I0
sg79
g80
sg27
I25859
sg82
I0
sg83
I00
sg15
I0
sg86
g87
sg88
g98
sS'RecMemTask.thisTrialN'
p186
I3
sg40
g41
sg43
I1
sg154
VStimuli/PL_001_92012.bmp
p187
sg46
I1
sg32
g33
sg19
I2000
sg60
g61
sg20
I23382
sg66
g11
sS'RecMemTask.thisRepN'
p188
I0
sg68
I01
sg71
g72
sg62
g63
sg18
I25360
sg54
I1
sg24
I25360
sg25
I500
sg26
I25859
sg84
g85
sg74
I0
sg157
g170
sg81
g63
sg99
I1
sa(dp189
g17
I25866
sg143
Vnewposface
p190
sg16
g145
sg44
g45
sg42
I1
sS'RecMemTask.thisN'
p191
I4
sg64
g65
sg47
g48
sg49
g50
sg51
I0
sg23
I27861
sg52
g53
sg55
g56
sg57
g58
sS'RecMemTask.thisIndex'
p192
g89
(g125
S'\x04\x00\x00\x00\x00\x00\x00\x00'
p193
tp194
Rp195
sg151
g152
sg14
g65
sg59
I0
sg67
I160
sg21
I27862
sg69
g70
sg73
I0
sg22
I0
sg75
g76
sg77
g78
sg28
I0
sg79
g80
sg27
I28362
sg82
I0
sg83
I00
sg15
I0
sg86
g87
sg88
g98
sS'RecMemTask.thisTrialN'
p196
I4
sg40
g41
sg43
I1
sg154
VStimuli/AM01_HO.bmp
p197
sg46
I1
sg32
g33
sg19
I2000
sg60
g61
sg20
I25867
sg66
g11
sS'RecMemTask.thisRepN'
p198
I0
sg68
I01
sg71
g72
sg62
g63
sg18
I27862
sg54
I1
sg24
I27862
sg25
I500
sg26
I28362
sg84
g85
sg74
I0
sg157
g145
sg81
g63
sg99
I1
sa(dp199
g17
I28369
sg143
g180
sg16
g170
sg44
g45
sg42
I1
sS'RecMemTask.thisN'
p200
I5
sg64
g65
sg47
g48
sg49
g50
sg51
I0
sg23
I30373
sg52
g53
sg55
g56
sg57
g58
sS'RecMemTask.thisIndex'
p201
g89
(g125
S'\x05\x00\x00\x00\x00\x00\x00\x00'
p202
tp203
Rp204
sg151
g152
sg14
g65
sg59
I0
sg67
I160
sg21
I30373
sg69
g70
sg73
I0
sg22
I0
sg75
g76
sg77
g78
sg28
I0
sg79
g80
sg27
I30872
sg82
I0
sg83
I00
sg15
I0
sg86
g87
sg88
g98
sS'RecMemTask.thisTrialN'
p205
I5
sg40
g41
sg43
I1
sg154
VStimuli/PL_009_92037.bmp
p206
sg46
I1
sg32
g33
sg19
I2000
sg60
g61
sg20
I28369
sg66
g11
sS'RecMemTask.thisRepN'
p207
I0
sg68
I01
sg71
g72
sg62
g63
sg18
I30373
sg54
I1
sg24
I30373
sg25
I500
sg26
I30872
sg84
g85
sg74
I0
sg157
g170
sg81
g63
sg99
I1
sa(dp208
g17
I30879
sg143
Voldnegface
p209
sg16
g170
sg44
g45
sg42
I1
sS'RecMemTask.thisN'
p210
I6
sg64
g65
sg47
g48
sg49
g50
sg51
I0
sg23
I32861
sg52
g53
sg55
g56
sg57
g58
sS'RecMemTask.thisIndex'
p211
g89
(g125
S'\x06\x00\x00\x00\x00\x00\x00\x00'
p212
tp213
Rp214
sg151
g152
sg14
g65
sg59
I0
sg67
I160
sg21
I32861
sg69
g70
sg73
I0
sg22
I0
sg75
g76
sg77
g78
sg28
I0
sg79
g80
sg27
I33365
sg82
I0
sg83
I00
sg15
I0
sg86
g87
sg88
g98
sS'RecMemTask.thisTrialN'
p215
I6
sg40
g41
sg43
I1
sg154
VStimuli/HM03_FO.bmp
p216
sg46
I1
sg32
g33
sg19
I2000
sg60
g61
sg20
I30879
sg66
g11
sS'RecMemTask.thisRepN'
p217
I0
sg68
I01
sg71
g72
sg62
g63
sg18
I32861
sg54
I1
sg24
I32861
sg25
I500
sg26
I33365
sg84
g85
sg74
I0
sg157
g170
sg81
g63
sg99
I1
sa(dp218
g17
I33372
sg143
Vnewnegface
p219
sg16
g145
sg44
g45
sg42
I1
sS'RecMemTask.thisN'
p220
I7
sg64
g65
sg47
g48
sg49
g50
sg51
I0
sg23
I35365
sg52
g53
sg55
g56
sg57
g58
sS'RecMemTask.thisIndex'
p221
g89
(g125
S'\x07\x00\x00\x00\x00\x00\x00\x00'
p222
tp223
Rp224
sg151
g152
sg14
g65
sg59
I0
sg67
I160
sg21
I35365
sg69
g70
sg73
I0
sg22
I0
sg75
g76
sg77
g78
sg28
I0
sg79
g80
sg27
I35863
sg82
I0
sg83
I00
sg15
I0
sg86
g87
sg88
g98
sS'RecMemTask.thisTrialN'
p225
I7
sg40
g41
sg43
I1
sg154
VStimuli/BF04_FO.bmp
p226
sg46
I1
sg32
g33
sg19
I2000
sg60
g61
sg20
I33373
sg66
g11
sS'RecMemTask.thisRepN'
p227
I0
sg68
I01
sg71
g72
sg62
g63
sg18
I35365
sg54
I1
sg24
I35365
sg25
I500
sg26
I35863
sg84
g85
sg74
I0
sg157
g145
sg81
g63
sg99
I1
sa(dp228
g17
I35872
sg143
g169
sg16
g170
sg44
g45
sg42
I1
sS'RecMemTask.thisN'
p229
I8
sg64
g65
sg47
g48
sg49
g50
sg51
I0
sg23
I37863
sg52
g53
sg55
g56
sg57
g58
sS'RecMemTask.thisIndex'
p230
g89
(g125
S'\x08\x00\x00\x00\x00\x00\x00\x00'
p231
tp232
Rp233
sg151
g152
sg14
g65
sg59
I0
sg67
I160
sg21
I37863
sg69
g70
sg73
I0
sg22
I0
sg75
g76
sg77
g78
sg28
I0
sg79
g80
sg27
I38367
sg82
I0
sg83
I00
sg15
I0
sg86
g87
sg88
g98
sS'RecMemTask.thisTrialN'
p234
I8
sg40
g41
sg43
I1
sg154
VStimuli/LF227_NC.bmp
p235
sg46
I1
sg32
g33
sg19
I2000
sg60
g61
sg20
I35872
sg66
g11
sS'RecMemTask.thisRepN'
p236
I0
sg68
I01
sg71
g72
sg62
g63
sg18
I37863
sg54
I1
sg24
I37863
sg25
I500
sg26
I38367
sg84
g85
sg74
I0
sg157
g170
sg81
g63
sg99
I1
sa(dp237
g17
I38374
sg143
Voldposface
p238
sg16
g170
sg44
g45
sg42
I1
sS'RecMemTask.thisN'
p239
I9
sg64
g65
sg47
g48
sg49
g50
sg51
I0
sg23
I40362
sg52
g53
sg55
g56
sg57
g58
sS'RecMemTask.thisIndex'
p240
g89
(g125
S'\t\x00\x00\x00\x00\x00\x00\x00'
p241
tp242
Rp243
sg151
g152
sg14
g65
sg59
I0
sg67
I160
sg21
I40362
sg69
g70
sg73
I0
sg22
I0
sg75
g76
sg77
g78
sg28
I0
sg79
g80
sg27
I40879
sg82
I0
sg83
I00
sg15
I0
sg86
g87
sg88
g98
sS'RecMemTask.thisTrialN'
p244
I9
sg40
g41
sg43
I1
sg154
VStimuli/12F_HO.bmp
p245
sg46
I1
sg32
g33
sg19
I2000
sg60
g61
sg20
I38374
sg66
g11
sS'RecMemTask.thisRepN'
p246
I0
sg68
I01
sg71
g72
sg62
g63
sg18
I40362
sg54
I1
sg24
I40363
sg25
I500
sg26
I40879
sg84
g85
sg74
I0
sg157
g170
sg81
g63
sg99
I1
sa(dp247
g17
I40886
sg143
g209
sg16
g170
sg44
g45
sg42
I1
sS'RecMemTask.thisN'
p248
I10
sg64
g65
sg47
g48
sg49
g50
sg51
I0
sg23
I42878
sg52
g53
sg55
g56
sg57
g58
sS'RecMemTask.thisIndex'
p249
g89
(g125
S'\n\x00\x00\x00\x00\x00\x00\x00'
p250
tp251
Rp252
sg151
g152
sg14
g65
sg59
I0
sg67
I160
sg21
I42878
sg69
g70
sg73
I0
sg22
I0
sg75
g76
sg77
g78
sg28
I0
sg79
g80
sg27
I43361
sg82
I0
sg83
I00
sg15
I0
sg86
g87
sg88
g98
sS'RecMemTask.thisTrialN'
p253
I10
sg40
g41
sg43
I1
sg154
VStimuli/9F_FO.bmp
p254
sg46
I1
sg32
g33
sg19
I2000
sg60
g61
sg20
I40886
sg66
g11
sS'RecMemTask.thisRepN'
p255
I0
sg68
I01
sg71
g72
sg62
g63
sg18
I42878
sg54
I1
sg24
I42878
sg25
I500
sg26
I43361
sg84
g85
sg74
I0
sg157
g170
sg81
g63
sg99
I1
sa(dp256
g17
I43370
sg143
g159
sg16
g145
sg44
g45
sg42
I1
sS'RecMemTask.thisN'
p257
I11
sg64
g65
sg47
g48
sg49
g50
sg51
I0
sg23
I45374
sg52
g53
sg55
g56
sg57
g58
sS'RecMemTask.thisIndex'
p258
g89
(g125
S'\x0b\x00\x00\x00\x00\x00\x00\x00'
p259
tp260
Rp261
sg151
g152
sg14
g65
sg59
I0
sg67
I160
sg21
I45374
sg69
g70
sg73
I0
sg22
I0
sg75
g76
sg77
g78
sg28
I0
sg79
g80
sg27
I45874
sg82
I0
sg83
I00
sg15
I0
sg86
g87
sg88
g98
sS'RecMemTask.thisTrialN'
p262
I11
sg40
g41
sg43
I1
sg154
VStimuli/PL_058_TUFTS07BW.bmp
p263
sg46
I1
sg32
g33
sg19
I2000
sg60
g61
sg20
I43371
sg66
g11
sS'RecMemTask.thisRepN'
p264
I0
sg68
I01
sg71
g72
sg62
g63
sg18
I45374
sg54
I1
sg24
I45374
sg25
I500
sg26
I45874
sg84
g85
sg74
I0
sg157
g145
sg81
g63
sg99
I1
sa(dp265
g17
I45882
sg143
g238
sg16
g170
sg44
g45
sg42
I1
sS'RecMemTask.thisN'
p266
I12
sg64
g65
sg47
g48
sg49
g50
sg51
I0
sg23
I47874
sg52
g53
sg55
g56
sg57
g58
sS'RecMemTask.thisIndex'
p267
g89
(g125
S'\x0c\x00\x00\x00\x00\x00\x00\x00'
p268
tp269
Rp270
sg151
g152
sg14
g65
sg59
I0
sg67
I160
sg21
I47874
sg69
g70
sg73
I0
sg22
I0
sg75
g76
sg77
g78
sg28
I0
sg79
g80
sg27
I48374
sg82
I0
sg83
I00
sg15
I0
sg86
g87
sg88
g98
sS'RecMemTask.thisTrialN'
p271
I12
sg40
g41
sg43
I1
sg154
VStimuli/34M_HO.bmp
p272
sg46
I1
sg32
g33
sg19
I2000
sg60
g61
sg20
I45882
sg66
g11
sS'RecMemTask.thisRepN'
p273
I0
sg68
I01
sg71
g72
sg62
g63
sg18
I47874
sg54
I1
sg24
I47874
sg25
I500
sg26
I48374
sg84
g85
sg74
I0
sg157
g170
sg81
g63
sg99
I1
sa(dp274
g17
I48383
sg143
g219
sg16
g145
sg44
g45
sg42
I1
sS'RecMemTask.thisN'
p275
I13
sg64
g65
sg47
g48
sg49
g50
sg51
I0
sg23
I50412
sg52
g53
sg55
g56
sg57
g58
sS'RecMemTask.thisIndex'
p276
g89
(g125
S'\r\x00\x00\x00\x00\x00\x00\x00'
p277
tp278
Rp279
sg151
g152
sg14
g65
sg59
I0
sg67
I160
sg21
I50413
sg69
g70
sg73
I0
sg22
I0
sg75
g76
sg77
g78
sg28
I0
sg79
g80
sg27
I50879
sg82
I0
sg83
I00
sg15
I0
sg86
g87
sg88
g98
sS'RecMemTask.thisTrialN'
p280
I13
sg40
g41
sg43
I1
sg154
VStimuli/WM033_FO.bmp
p281
sg46
I1
sg32
g33
sg19
I2000
sg60
g61
sg20
I48383
sg66
g11
sS'RecMemTask.thisRepN'
p282
I0
sg68
I01
sg71
g72
sg62
g63
sg18
I50413
sg54
I1
sg24
I50413
sg25
I500
sg26
I50879
sg84
g85
sg74
I0
sg157
g145
sg81
g63
sg99
I1
sa(dp283
g17
I50885
sg143
g190
sg16
g145
sg44
g45
sg42
I1
sS'RecMemTask.thisN'
p284
I14
sg64
g65
sg47
g48
sg49
g50
sg51
I0
sg23
I52875
sg52
g53
sg55
g56
sg57
g58
sS'RecMemTask.thisIndex'
p285
g89
(g125
S'\x0e\x00\x00\x00\x00\x00\x00\x00'
p286
tp287
Rp288
sg151
g152
sg14
g65
sg59
I0
sg67
I160
sg21
I52875
sg69
g70
sg73
I0
sg22
I0
sg75
g76
sg77
g78
sg28
I0
sg79
g80
sg27
I53375
sg82
I0
sg83
I00
sg15
I0
sg86
g87
sg88
g98
sS'RecMemTask.thisTrialN'
p289
I14
sg40
g41
sg43
I1
sg154
VStimuli/BF005_HO.bmp
p290
sg46
I1
sg32
g33
sg19
I2000
sg60
g61
sg20
I50885
sg66
g11
sS'RecMemTask.thisRepN'
p291
I0
sg68
I01
sg71
g72
sg62
g63
sg18
I52875
sg54
I1
sg24
I52875
sg25
I500
sg26
I53375
sg84
g85
sg74
I0
sg157
g145
sg81
g63
sg99
I1
sa(dp292
g17
I53384
sg143
g144
sg16
g145
sg44
g45
sg42
I1
sS'RecMemTask.thisN'
p293
I15
sg64
g65
sg47
g48
sg49
g50
sg51
I0
sg23
I55359
sg52
g53
sg55
g56
sg57
g58
sS'RecMemTask.thisIndex'
p294
g89
(g125
S'\x0f\x00\x00\x00\x00\x00\x00\x00'
p295
tp296
Rp297
sg151
g152
sg14
g65
sg59
I0
sg67
I160
sg21
I55359
sg69
g70
sg73
I0
sg22
I0
sg75
g76
sg77
g78
sg28
I0
sg79
g80
sg27
I55875
sg82
I0
sg83
I00
sg15
I0
sg86
g87
sg88
g98
sS'RecMemTask.thisTrialN'
p298
I15
sg40
g41
sg43
I1
sg154
VStimuli/LM216_NC.bmp
p299
sg46
I1
sg32
g33
sg19
I2000
sg60
g61
sg20
I53385
sg66
g11
sS'RecMemTask.thisRepN'
p300
I0
sg68
I01
sg71
g72
sg62
g63
sg18
I55359
sg54
I1
sg24
I55359
sg25
I500
sg26
I55875
sg84
g85
sg74
I0
sg157
g145
sg81
g63
sg99
I1
sa(dp301
g17
I55885
sg143
g144
sg16
g145
sg44
g45
sg42
I1
sS'RecMemTask.thisN'
p302
I16
sg64
g65
sg47
g48
sg49
g50
sg51
I0
sg23
I57875
sg52
g53
sg55
g56
sg57
g58
sS'RecMemTask.thisIndex'
p303
g89
(g125
S'\x10\x00\x00\x00\x00\x00\x00\x00'
p304
tp305
Rp306
sg151
g152
sg14
g65
sg59
I0
sg67
I160
sg21
I57875
sg69
g70
sg73
I0
sg22
I0
sg75
g76
sg77
g78
sg28
I0
sg79
g80
sg27
I58376
sg82
I0
sg83
I00
sg15
I0
sg86
g87
sg88
g98
sS'RecMemTask.thisTrialN'
p307
I16
sg40
g41
sg43
I1
sg154
VStimuli/WF01_NC.bmp
p308
sg46
I1
sg32
g33
sg19
I2000
sg60
g61
sg20
I55885
sg66
g11
sS'RecMemTask.thisRepN'
p309
I0
sg68
I01
sg71
g72
sg62
g63
sg18
I57875
sg54
I1
sg24
I57875
sg25
I500
sg26
I58375
sg84
g85
sg74
I0
sg157
g145
sg81
g63
sg99
I1
sa(dp310
g17
I58382
sg143
g159
sg16
g145
sg44
g45
sg42
I1
sS'RecMemTask.thisN'
p311
I17
sg64
g65
sg47
g48
sg49
g50
sg51
I0
sg23
I60368
sg52
g53
sg55
g56
sg57
g58
sS'RecMemTask.thisIndex'
p312
g89
(g125
S'\x11\x00\x00\x00\x00\x00\x00\x00'
p313
tp314
Rp315
sg151
g152
sg14
g65
sg59
I0
sg67
I160
sg21
I60368
sg69
g70
sg73
I0
sg22
I0
sg75
g76
sg77
g78
sg28
I0
sg79
g80
sg27
I60875
sg82
I0
sg83
I00
sg15
I0
sg86
g87
sg88
g98
sS'RecMemTask.thisTrialN'
p316
I17
sg40
g41
sg43
I1
sg154
VStimuli/PL_060_TUFTS10BW.bmp
p317
sg46
I1
sg32
g33
sg19
I2000
sg60
g61
sg20
I58382
sg66
g11
sS'RecMemTask.thisRepN'
p318
I0
sg68
I01
sg71
g72
sg62
g63
sg18
I60368
sg54
I1
sg24
I60368
sg25
I500
sg26
I60875
sg84
g85
sg74
I0
sg157
g145
sg81
g63
sg99
I1
sa(dp319
g17
I60885
sg143
g180
sg16
g170
sg44
g45
sg42
I1
sS'RecMemTask.thisN'
p320
I18
sg64
g65
sg47
g48
sg49
g50
sg51
I0
sg23
I62859
sg52
g53
sg55
g56
sg57
g58
sS'RecMemTask.thisIndex'
p321
g89
(g125
S'\x12\x00\x00\x00\x00\x00\x00\x00'
p322
tp323
Rp324
sg151
g152
sg14
g65
sg59
I0
sg67
I160
sg21
I62859
sg69
g70
sg73
I0
sg22
I0
sg75
g76
sg77
g78
sg28
I0
sg79
g80
sg27
I63360
sg82
I0
sg83
I00
sg15
I0
sg86
g87
sg88
g98
sS'RecMemTask.thisTrialN'
p325
I18
sg40
g41
sg43
I1
sg154
VStimuli/PL_010_92038.bmp
p326
sg46
I1
sg32
g33
sg19
I2000
sg60
g61
sg20
I60886
sg66
g11
sS'RecMemTask.thisRepN'
p327
I0
sg68
I01
sg71
g72
sg62
g63
sg18
I62859
sg54
I1
sg24
I62860
sg25
I500
sg26
I63360
sg84
g85
sg74
I0
sg157
g170
sg81
g63
sg99
I1
sa(dp328
g17
I63368
sg143
g190
sg16
g145
sg44
g45
sg42
I1
sS'RecMemTask.thisN'
p329
I19
sg64
g65
sg47
g48
sg49
g50
sg51
I0
sg23
I65360
sg52
g53
sg55
g56
sg57
g58
sS'RecMemTask.thisIndex'
p330
g89
(g125
S'\x13\x00\x00\x00\x00\x00\x00\x00'
p331
tp332
Rp333
sg151
g152
sg14
g65
sg59
I0
sg67
I160
sg21
I65360
sg69
g70
sg73
I0
sg22
I0
sg75
g76
sg77
g78
sg28
I0
sg79
g80
sg27
I65860
sg82
I0
sg83
I00
sg15
I0
sg86
g87
sg88
g98
sS'RecMemTask.thisTrialN'
p334
I19
sg40
g41
sg43
I1
sg154
VStimuli/BM002_HO.bmp
p335
sg46
I1
sg32
g33
sg19
I2000
sg60
g61
sg20
I63368
sg66
g11
sS'RecMemTask.thisRepN'
p336
I0
sg68
I01
sg71
g72
sg62
g63
sg18
I65360
sg54
I1
sg24
I65360
sg25
I500
sg26
I65859
sg84
g85
sg74
I0
sg157
g145
sg81
g63
sg99
I1
sa(dp337
g17
I65868
sg143
g219
sg16
g145
sg44
g45
sg42
I1
sS'RecMemTask.thisN'
p338
I20
sg64
g65
sg47
g48
sg49
g50
sg51
I0
sg23
I67860
sg52
g53
sg55
g56
sg57
g58
sS'RecMemTask.thisIndex'
p339
g89
(g125
S'\x14\x00\x00\x00\x00\x00\x00\x00'
p340
tp341
Rp342
sg151
g152
sg14
g65
sg59
I0
sg67
I160
sg21
I67860
sg69
g70
sg73
I0
sg22
I0
sg75
g76
sg77
g78
sg28
I0
sg79
g80
sg27
I68361
sg82
I0
sg83
I00
sg15
I0
sg86
g87
sg88
g98
sS'RecMemTask.thisTrialN'
p343
I20
sg40
g41
sg43
I1
sg154
VStimuli/OM01_FO.bmp
p344
sg46
I1
sg32
g33
sg19
I2000
sg60
g61
sg20
I65869
sg66
g11
sS'RecMemTask.thisRepN'
p345
I0
sg68
I01
sg71
g72
sg62
g63
sg18
I67860
sg54
I1
sg24
I67860
sg25
I500
sg26
I68361
sg84
g85
sg74
I0
sg157
g145
sg81
g63
sg99
I1
sa(dp346
g17
I68369
sg143
g209
sg16
g170
sg44
g45
sg42
I1
sS'RecMemTask.thisN'
p347
I21
sg64
g65
sg47
g48
sg49
g50
sg51
I0
sg23
I70360
sg52
g53
sg55
g56
sg57
g58
sS'RecMemTask.thisIndex'
p348
g89
(g125
S'\x15\x00\x00\x00\x00\x00\x00\x00'
p349
tp350
Rp351
sg151
g152
sg14
g65
sg59
I0
sg67
I160
sg21
I70360
sg69
g70
sg73
I0
sg22
I0
sg75
g76
sg77
g78
sg28
I0
sg79
g80
sg27
I70860
sg82
I0
sg83
I00
sg15
I0
sg86
g87
sg88
g98
sS'RecMemTask.thisTrialN'
p352
I21
sg40
g41
sg43
I1
sg154
VStimuli/39M_FO.bmp
p353
sg46
I1
sg32
g33
sg19
I2000
sg60
g61
sg20
I68369
sg66
g11
sS'RecMemTask.thisRepN'
p354
I0
sg68
I01
sg71
g72
sg62
g63
sg18
I70360
sg54
I1
sg24
I70360
sg25
I500
sg26
I70860
sg84
g85
sg74
I0
sg157
g170
sg81
g63
sg99
I1
sa(dp355
g17
I70869
sg143
g209
sg16
g170
sg44
g45
sg42
I1
sS'RecMemTask.thisN'
p356
I22
sg64
g65
sg47
g48
sg49
g50
sg51
I0
sg23
I72868
sg52
g53
sg55
g56
sg57
g58
sS'RecMemTask.thisIndex'
p357
g89
(g125
S'\x16\x00\x00\x00\x00\x00\x00\x00'
p358
tp359
Rp360
sg151
g152
sg14
g65
sg59
I0
sg67
I160
sg21
I72868
sg69
g70
sg73
I0
sg22
I0
sg75
g76
sg77
g78
sg28
I0
sg79
g80
sg27
I73360
sg82
I0
sg83
I00
sg15
I0
sg86
g87
sg88
g98
sS'RecMemTask.thisTrialN'
p361
I22
sg40
g41
sg43
I1
sg154
VStimuli/BM045_FO.bmp
p362
sg46
I1
sg32
g33
sg19
I2000
sg60
g61
sg20
I70870
sg66
g11
sS'RecMemTask.thisRepN'
p363
I0
sg68
I01
sg71
g72
sg62
g63
sg18
I72868
sg54
I1
sg24
I72868
sg25
I500
sg26
I73360
sg84
g85
sg74
I0
sg157
g170
sg81
g63
sg99
I1
sa(dp364
g17
I73368
sg143
g238
sg16
g170
sg44
g45
sg42
I1
sS'RecMemTask.thisN'
p365
I23
sg64
g65
sg47
g48
sg49
g50
sg51
I0
sg23
I75361
sg52
g53
sg55
g56
sg57
g58
sS'RecMemTask.thisIndex'
p366
g89
(g125
S'\x17\x00\x00\x00\x00\x00\x00\x00'
p367
tp368
Rp369
sg151
g152
sg14
g65
sg59
I0
sg67
I160
sg21
I75361
sg69
g70
sg73
I0
sg22
I0
sg75
g76
sg77
g78
sg28
I0
sg79
g80
sg27
I75865
sg82
I0
sg83
I00
sg15
I0
sg86
g87
sg88
g98
sS'RecMemTask.thisTrialN'
p370
I23
sg40
g41
sg43
I1
sg154
VStimuli/BF037_HO.bmp
p371
sg46
I1
sg32
g33
sg19
I2000
sg60
g61
sg20
I73368
sg66
g11
sS'RecMemTask.thisRepN'
p372
I0
sg68
I01
sg71
g72
sg62
g63
sg18
I75361
sg54
I1
sg24
I75361
sg25
I500
sg26
I75865
sg84
g85
sg74
I0
sg157
g170
sg81
g63
sg99
I1
sa(dp373
g17
I75871
sg143
g144
sg16
g145
sg44
g45
sg42
I1
sS'RecMemTask.thisN'
p374
I24
sg64
g65
sg47
g48
sg49
g50
sg51
I0
sg23
I77862
sg52
g53
sg55
g56
sg57
g58
sS'RecMemTask.thisIndex'
p375
g89
(g125
S'\x18\x00\x00\x00\x00\x00\x00\x00'
p376
tp377
Rp378
sg151
g152
sg14
g65
sg59
I0
sg67
I160
sg21
I77863
sg69
g70
sg73
I0
sg22
I0
sg75
g76
sg77
g78
sg28
I0
sg79
g80
sg27
I78361
sg82
I0
sg83
I00
sg15
I0
sg86
g87
sg88
g98
sS'RecMemTask.thisTrialN'
p379
I24
sg40
g41
sg43
I1
sg154
VStimuli/AM245_NC.bmp
p380
sg46
I1
sg32
g33
sg19
I2000
sg60
g61
sg20
I75872
sg66
g11
sS'RecMemTask.thisRepN'
p381
I0
sg68
I01
sg71
g72
sg62
g63
sg18
I77863
sg54
I1
sg24
I77863
sg25
I500
sg26
I78361
sg84
g85
sg74
I0
sg157
g145
sg81
g63
sg99
I1
sa(dp382
g17
I78370
sg143
g169
sg16
g170
sg44
g45
sg42
I1
sS'RecMemTask.thisN'
p383
I25
sg64
g65
sg47
g48
sg49
g50
sg51
I0
sg23
I80370
sg52
g53
sg55
g56
sg57
g58
sS'RecMemTask.thisIndex'
p384
g89
(g125
S'\x19\x00\x00\x00\x00\x00\x00\x00'
p385
tp386
Rp387
sg151
g152
sg14
g65
sg59
I0
sg67
I160
sg21
I80370
sg69
g70
sg73
I0
sg22
I0
sg75
g76
sg77
g78
sg28
I0
sg79
g80
sg27
I80871
sg82
I0
sg83
I00
sg15
I0
sg86
g87
sg88
g98
sS'RecMemTask.thisTrialN'
p388
I25
sg40
g41
sg43
I1
sg154
VStimuli/AF218_NC.bmp
p389
sg46
I1
sg32
g33
sg19
I2000
sg60
g61
sg20
I78371
sg66
g11
sS'RecMemTask.thisRepN'
p390
I0
sg68
I01
sg71
g72
sg62
g63
sg18
I80370
sg54
I1
sg24
I80370
sg25
I500
sg26
I80870
sg84
g85
sg74
I0
sg157
g170
sg81
g63
sg99
I1
sa(dp391
g17
I80878
sg143
g219
sg16
g145
sg44
g45
sg42
I1
sS'RecMemTask.thisN'
p392
I26
sg64
g65
sg47
g48
sg49
g50
sg51
I0
sg23
I82870
sg52
g53
sg55
g56
sg57
g58
sS'RecMemTask.thisIndex'
p393
g89
(g125
S'\x1a\x00\x00\x00\x00\x00\x00\x00'
p394
tp395
Rp396
sg151
g152
sg14
g65
sg59
I0
sg67
I160
sg21
I82870
sg69
g70
sg73
I0
sg22
I0
sg75
g76
sg77
g78
sg28
I0
sg79
g80
sg27
I83369
sg82
I0
sg83
I00
sg15
I0
sg86
g87
sg88
g98
sS'RecMemTask.thisTrialN'
p397
I26
sg40
g41
sg43
I1
sg154
VStimuli/AF03_FO.bmp
p398
sg46
I1
sg32
g33
sg19
I2000
sg60
g61
sg20
I80878
sg66
g11
sS'RecMemTask.thisRepN'
p399
I0
sg68
I01
sg71
g72
sg62
g63
sg18
I82870
sg54
I1
sg24
I82870
sg25
I500
sg26
I83369
sg84
g85
sg74
I0
sg157
g145
sg81
g63
sg99
I1
sa(dp400
g17
I83376
sg143
g159
sg16
g145
sg44
g45
sg42
I1
sS'RecMemTask.thisN'
p401
I27
sg64
g65
sg47
g48
sg49
g50
sg51
I0
sg23
I85370
sg52
g53
sg55
g56
sg57
g58
sS'RecMemTask.thisIndex'
p402
g89
(g125
S'\x1b\x00\x00\x00\x00\x00\x00\x00'
p403
tp404
Rp405
sg151
g152
sg14
g65
sg59
I0
sg67
I160
sg21
I85370
sg69
g70
sg73
I0
sg22
I0
sg75
g76
sg77
g78
sg28
I0
sg79
g80
sg27
I85871
sg82
I0
sg83
I00
sg15
I0
sg86
g87
sg88
g98
sS'RecMemTask.thisTrialN'
p406
I27
sg40
g41
sg43
I1
sg154
VStimuli/PL_061_TUFTS11BW.bmp
p407
sg46
I1
sg32
g33
sg19
I2000
sg60
g61
sg20
I83377
sg66
g11
sS'RecMemTask.thisRepN'
p408
I0
sg68
I01
sg71
g72
sg62
g63
sg18
I85370
sg54
I1
sg24
I85370
sg25
I500
sg26
I85871
sg84
g85
sg74
I0
sg157
g145
sg81
g63
sg99
I1
sa(dp409
g17
I85878
sg143
g180
sg16
g170
sg44
g45
sg42
I1
sS'RecMemTask.thisN'
p410
I28
sg64
g65
sg47
g48
sg49
g50
sg51
I0
sg23
I87871
sg52
g53
sg55
g56
sg57
g58
sS'RecMemTask.thisIndex'
p411
g89
(g125
S'\x1c\x00\x00\x00\x00\x00\x00\x00'
p412
tp413
Rp414
sg151
g152
sg14
g65
sg59
I0
sg67
I160
sg21
I87871
sg69
g70
sg73
I0
sg22
I0
sg75
g76
sg77
g78
sg28
I0
sg79
g80
sg27
I88363
sg82
I0
sg83
I00
sg15
I0
sg86
g87
sg88
g98
sS'RecMemTask.thisTrialN'
p415
I28
sg40
g41
sg43
I1
sg154
VStimuli/PL_003_92016.bmp
p416
sg46
I1
sg32
g33
sg19
I2000
sg60
g61
sg20
I85878
sg66
g11
sS'RecMemTask.thisRepN'
p417
I0
sg68
I01
sg71
g72
sg62
g63
sg18
I87871
sg54
I1
sg24
I87871
sg25
I500
sg26
I88363
sg84
g85
sg74
I0
sg157
g170
sg81
g63
sg99
I1
sa(dp418
g17
I88370
sg143
g190
sg16
g145
sg44
g45
sg42
I1
sS'RecMemTask.thisN'
p419
I29
sg64
g65
sg47
g48
sg49
g50
sg51
I0
sg23
I90363
sg52
g53
sg55
g56
sg57
g58
sS'RecMemTask.thisIndex'
p420
g89
(g125
S'\x1d\x00\x00\x00\x00\x00\x00\x00'
p421
tp422
Rp423
sg151
g152
sg14
g65
sg59
I0
sg67
I160
sg21
I90363
sg69
g70
sg73
I0
sg22
I0
sg75
g76
sg77
g78
sg28
I0
sg79
g80
sg27
I90871
sg82
I0
sg83
I00
sg15
I0
sg86
g87
sg88
g98
sS'RecMemTask.thisTrialN'
p424
I29
sg40
g41
sg43
I1
sg154
VStimuli/HF03_HO.bmp
p425
sg46
I1
sg32
g33
sg19
I2000
sg60
g61
sg20
I88371
sg66
g11
sS'RecMemTask.thisRepN'
p426
I0
sg68
I01
sg71
g72
sg62
g63
sg18
I90363
sg54
I1
sg24
I90363
sg25
I500
sg26
I90871
sg84
g85
sg74
I0
sg157
g145
sg81
g63
sg99
I1
sa(dp427
g17
I90879
sg143
g169
sg16
g170
sg44
g45
sg42
I1
sS'RecMemTask.thisN'
p428
I30
sg64
g65
sg47
g48
sg49
g50
sg51
I0
sg23
I92863
sg52
g53
sg55
g56
sg57
g58
sS'RecMemTask.thisIndex'
p429
g89
(g125
S'\x1e\x00\x00\x00\x00\x00\x00\x00'
p430
tp431
Rp432
sg151
g152
sg14
g65
sg59
I0
sg67
I160
sg21
I92863
sg69
g70
sg73
I0
sg22
I0
sg75
g76
sg77
g78
sg28
I0
sg79
g80
sg27
I93363
sg82
I0
sg83
I00
sg15
I0
sg86
g87
sg88
g98
sS'RecMemTask.thisTrialN'
p433
I30
sg40
g41
sg43
I1
sg154
VStimuli/42M_NC.bmp
p434
sg46
I1
sg32
g33
sg19
I2000
sg60
g61
sg20
I90879
sg66
g11
sS'RecMemTask.thisRepN'
p435
I0
sg68
I01
sg71
g72
sg62
g63
sg18
I92863
sg54
I1
sg24
I92863
sg25
I500
sg26
I93363
sg84
g85
sg74
I0
sg157
g170
sg81
g63
sg99
I1
sa(dp436
g17
I93371
sg143
g238
sg16
g170
sg44
g45
sg42
I1
sS'RecMemTask.thisN'
p437
I31
sg64
g65
sg47
g48
sg49
g50
sg51
I0
sg23
I95365
sg52
g53
sg55
g56
sg57
g58
sS'RecMemTask.thisIndex'
p438
g89
(g125
S'\x1f\x00\x00\x00\x00\x00\x00\x00'
p439
tp440
Rp441
sg151
g152
sg14
g65
sg59
I0
sg67
I160
sg21
I95365
sg69
g70
sg73
I0
sg22
I0
sg75
g76
sg77
g78
sg28
I0
sg79
g80
sg27
I95863
sg82
I0
sg83
I00
sg15
I0
sg86
g87
sg88
g98
sS'RecMemTask.thisTrialN'
p442
I31
sg40
g41
sg43
I1
sg154
VStimuli/WM011_HO.bmp
p443
sg46
I1
sg32
g33
sg19
I2000
sg60
g61
sg20
I93372
sg66
g11
sS'RecMemTask.thisRepN'
p444
I0
sg68
I01
sg71
g72
sg62
g63
sg18
I95365
sg54
I1
sg24
I95365
sg25
I500
sg26
I95863
sg84
g85
sg74
I0
sg157
g170
sg81
g63
sg99
I1
sa(dp445
g17
I95873
sg143
g180
sg16
g170
sg44
g45
sg42
I1
sS'RecMemTask.thisN'
p446
I32
sg64
g65
sg47
g48
sg49
g50
sg51
I0
sg23
I97871
sg52
g53
sg55
g56
sg57
g58
sS'RecMemTask.thisIndex'
p447
g89
(g125
S' \x00\x00\x00\x00\x00\x00\x00'
p448
tp449
Rp450
sg151
g152
sg14
g65
sg59
I0
sg67
I160
sg21
I97871
sg69
g70
sg73
I0
sg22
I0
sg75
g76
sg77
g78
sg28
I0
sg79
g80
sg27
I98372
sg82
I0
sg83
I00
sg15
I0
sg86
g87
sg88
g98
sS'RecMemTask.thisTrialN'
p451
I32
sg40
g41
sg43
I1
sg154
VStimuli/PL_006_92025.bmp
p452
sg46
I1
sg32
g33
sg19
I2000
sg60
g61
sg20
I95874
sg66
g11
sS'RecMemTask.thisRepN'
p453
I0
sg68
I01
sg71
g72
sg62
g63
sg18
I97871
sg54
I1
sg24
I97871
sg25
I500
sg26
I98372
sg84
g85
sg74
I0
sg157
g170
sg81
g63
sg99
I1
sa(dp454
g17
I98380
sg143
g209
sg16
g170
sg44
g45
sg42
I1
sS'RecMemTask.thisN'
p455
I33
sg64
g65
sg47
g48
sg49
g50
sg51
I0
sg23
I100364
sg52
g53
sg55
g56
sg57
g58
sS'RecMemTask.thisIndex'
p456
g89
(g125
S'!\x00\x00\x00\x00\x00\x00\x00'
p457
tp458
Rp459
sg151
g152
sg14
g65
sg59
I0
sg67
I160
sg21
I100364
sg69
g70
sg73
I0
sg22
I0
sg75
g76
sg77
g78
sg28
I0
sg79
g80
sg27
I100872
sg82
I0
sg83
I00
sg15
I0
sg86
g87
sg88
g98
sS'RecMemTask.thisTrialN'
p460
I33
sg40
g41
sg43
I1
sg154
VStimuli/BF003_FO.bmp
p461
sg46
I1
sg32
g33
sg19
I2000
sg60
g61
sg20
I98380
sg66
g11
sS'RecMemTask.thisRepN'
p462
I0
sg68
I01
sg71
g72
sg62
g63
sg18
I100364
sg54
I1
sg24
I100365
sg25
I500
sg26
I100872
sg84
g85
sg74
I0
sg157
g170
sg81
g63
sg99
I1
sa(dp463
g17
I100878
sg143
g144
sg16
g145
sg44
g45
sg42
I1
sS'RecMemTask.thisN'
p464
I34
sg64
g65
sg47
g48
sg49
g50
sg51
I0
sg23
I102866
sg52
g53
sg55
g56
sg57
g58
sS'RecMemTask.thisIndex'
p465
g89
(g125
S'"\x00\x00\x00\x00\x00\x00\x00'
p466
tp467
Rp468
sg151
g152
sg14
g65
sg59
I0
sg67
I160
sg21
I102867
sg69
g70
sg73
I0
sg22
I0
sg75
g76
sg77
g78
sg28
I0
sg79
g80
sg27
I103372
sg82
I0
sg83
I00
sg15
I0
sg86
g87
sg88
g98
sS'RecMemTask.thisTrialN'
p469
I34
sg40
g41
sg43
I1
sg154
VStimuli/21M_NC.bmp
p470
sg46
I1
sg32
g33
sg19
I2000
sg60
g61
sg20
I100879
sg66
g11
sS'RecMemTask.thisRepN'
p471
I0
sg68
I01
sg71
g72
sg62
g63
sg18
I102867
sg54
I1
sg24
I102867
sg25
I500
sg26
I103372
sg84
g85
sg74
I0
sg157
g145
sg81
g63
sg99
I1
sa(dp472
g17
I103379
sg143
g159
sg16
g145
sg44
g45
sg42
I1
sS'RecMemTask.thisN'
p473
I35
sg64
g65
sg47
g48
sg49
g50
sg51
I0
sg23
I105365
sg52
g53
sg55
g56
sg57
g58
sS'RecMemTask.thisIndex'
p474
g89
(g125
S'#\x00\x00\x00\x00\x00\x00\x00'
p475
tp476
Rp477
sg151
g152
sg14
g65
sg59
I0
sg67
I160
sg21
I105365
sg69
g70
sg73
I0
sg22
I0
sg75
g76
sg77
g78
sg28
I0
sg79
g80
sg27
I105864
sg82
I0
sg83
I00
sg15
I0
sg86
g87
sg88
g98
sS'RecMemTask.thisTrialN'
p478
I35
sg40
g41
sg43
I1
sg154
VStimuli/PL_051_SCENE08.bmp
p479
sg46
I1
sg32
g33
sg19
I2000
sg60
g61
sg20
I103380
sg66
g11
sS'RecMemTask.thisRepN'
p480
I0
sg68
I01
sg71
g72
sg62
g63
sg18
I105365
sg54
I1
sg24
I105365
sg25
I500
sg26
I105864
sg84
g85
sg74
I0
sg157
g145
sg81
g63
sg99
I1
sa(dp481
g17
I105872
sg143
g219
sg16
g145
sg44
g45
sg42
I1
sS'RecMemTask.thisN'
p482
I36
sg64
g65
sg47
g48
sg49
g50
sg51
I0
sg23
I107873
sg52
g53
sg55
g56
sg57
g58
sS'RecMemTask.thisIndex'
p483
g89
(g125
S'$\x00\x00\x00\x00\x00\x00\x00'
p484
tp485
Rp486
sg151
g152
sg14
g65
sg59
I0
sg67
I160
sg21
I107873
sg69
g70
sg73
I0
sg22
I0
sg75
g76
sg77
g78
sg28
I0
sg79
g80
sg27
I108365
sg82
I0
sg83
I00
sg15
I0
sg86
g87
sg88
g98
sS'RecMemTask.thisTrialN'
p487
I36
sg40
g41
sg43
I1
sg154
VStimuli/37M_FO.bmp
p488
sg46
I1
sg32
g33
sg19
I2000
sg60
g61
sg20
I105872
sg66
g11
sS'RecMemTask.thisRepN'
p489
I0
sg68
I01
sg71
g72
sg62
g63
sg18
I107873
sg54
I1
sg24
I107873
sg25
I500
sg26
I108364
sg84
g85
sg74
I0
sg157
g145
sg81
g63
sg99
I1
sa(dp490
g17
I108374
sg143
g209
sg16
g170
sg44
g45
sg42
I1
sS'RecMemTask.thisN'
p491
I37
sg64
g65
sg47
g48
sg49
g50
sg51
I0
sg23
I110365
sg52
g53
sg55
g56
sg57
g58
sS'RecMemTask.thisIndex'
p492
g89
(g125
S'%\x00\x00\x00\x00\x00\x00\x00'
p493
tp494
Rp495
sg151
g152
sg14
g65
sg59
I0
sg67
I160
sg21
I110365
sg69
g70
sg73
I0
sg22
I0
sg75
g76
sg77
g78
sg28
I0
sg79
g80
sg27
I110871
sg82
I0
sg83
I00
sg15
I0
sg86
g87
sg88
g98
sS'RecMemTask.thisTrialN'
p496
I37
sg40
g41
sg43
I1
sg154
VStimuli/10F_FO.bmp
p497
sg46
I1
sg32
g33
sg19
I2000
sg60
g61
sg20
I108374
sg66
g11
sS'RecMemTask.thisRepN'
p498
I0
sg68
I01
sg71
g72
sg62
g63
sg18
I110365
sg54
I1
sg24
I110365
sg25
I500
sg26
I110871
sg84
g85
sg74
I0
sg157
g170
sg81
g63
sg99
I1
sa(dp499
g17
I110877
sg143
g238
sg16
g170
sg44
g45
sg42
I1
sS'RecMemTask.thisN'
p500
I38
sg64
g65
sg47
g48
sg49
g50
sg51
I0
sg23
I112875
sg52
g53
sg55
g56
sg57
g58
sS'RecMemTask.thisIndex'
p501
g89
(g125
S'&\x00\x00\x00\x00\x00\x00\x00'
p502
tp503
Rp504
sg151
g152
sg14
g65
sg59
I0
sg67
I160
sg21
I112875
sg69
g70
sg73
I0
sg22
I0
sg75
g76
sg77
g78
sg28
I0
sg79
g80
sg27
I113366
sg82
I0
sg83
I00
sg15
I0
sg86
g87
sg88
g98
sS'RecMemTask.thisTrialN'
p505
I38
sg40
g41
sg43
I1
sg154
VStimuli/BF002_HO.bmp
p506
sg46
I1
sg32
g33
sg19
I2000
sg60
g61
sg20
I110877
sg66
g11
sS'RecMemTask.thisRepN'
p507
I0
sg68
I01
sg71
g72
sg62
g63
sg18
I112875
sg54
I1
sg24
I112875
sg25
I500
sg26
I113366
sg84
g85
sg74
I0
sg157
g170
sg81
g63
sg99
I1
sa(dp508
g17
I113376
sg143
g159
sg16
g145
sg44
g45
sg42
I1
sS'RecMemTask.thisN'
p509
I39
sg64
g65
sg47
g48
sg49
g50
sg51
I0
sg23
I115366
sg52
g53
sg55
g56
sg57
g58
sS'RecMemTask.thisIndex'
p510
g89
(g125
S"'\x00\x00\x00\x00\x00\x00\x00"
p511
tp512
Rp513
sg151
g152
sg14
g65
sg59
I0
sg67
I160
sg21
I115367
sg69
g70
sg73
I0
sg22
I0
sg75
g76
sg77
g78
sg28
I0
sg79
g80
sg27
I115867
sg82
I0
sg83
I00
sg15
I0
sg86
g87
sg88
g98
sS'RecMemTask.thisTrialN'
p514
I39
sg40
g41
sg43
I1
sg154
VStimuli/PL_053_SCENE15.bmp
p515
sg46
I1
sg32
g33
sg19
I2000
sg60
g61
sg20
I113376
sg66
g11
sS'RecMemTask.thisRepN'
p516
I0
sg68
I01
sg71
g72
sg62
g63
sg18
I115367
sg54
I1
sg24
I115367
sg25
I500
sg26
I115867
sg84
g85
sg74
I0
sg157
g145
sg81
g63
sg99
I1
sa(dp517
g17
I115875
sg143
g190
sg16
g145
sg44
g45
sg42
I1
sS'RecMemTask.thisN'
p518
I40
sg64
g65
sg47
g48
sg49
g50
sg51
I0
sg23
I117872
sg52
g53
sg55
g56
sg57
g58
sS'RecMemTask.thisIndex'
p519
g89
(g125
S'(\x00\x00\x00\x00\x00\x00\x00'
p520
tp521
Rp522
sg151
g152
sg14
g65
sg59
I0
sg67
I160
sg21
I117872
sg69
g70
sg73
I0
sg22
I0
sg75
g76
sg77
g78
sg28
I0
sg79
g80
sg27
I118367
sg82
I0
sg83
I00
sg15
I0
sg86
g87
sg88
g98
sS'RecMemTask.thisTrialN'
p523
I40
sg40
g41
sg43
I1
sg154
VStimuli/18F_HO.bmp
p524
sg46
I1
sg32
g33
sg19
I2000
sg60
g61
sg20
I115875
sg66
g11
sS'RecMemTask.thisRepN'
p525
I0
sg68
I01
sg71
g72
sg62
g63
sg18
I117872
sg54
I1
sg24
I117872
sg25
I500
sg26
I118367
sg84
g85
sg74
I0
sg157
g145
sg81
g63
sg99
I1
sa(dp526
g17
I118375
sg143
g169
sg16
g170
sg44
g45
sg42
I1
sS'RecMemTask.thisN'
p527
I41
sg64
g65
sg47
g48
sg49
g50
sg51
I0
sg23
I120368
sg52
g53
sg55
g56
sg57
g58
sS'RecMemTask.thisIndex'
p528
g89
(g125
S')\x00\x00\x00\x00\x00\x00\x00'
p529
tp530
Rp531
sg151
g152
sg14
g65
sg59
I0
sg67
I160
sg21
I120368
sg69
g70
sg73
I0
sg22
I0
sg75
g76
sg77
g78
sg28
I0
sg79
g80
sg27
I120869
sg82
I0
sg83
I00
sg15
I0
sg86
g87
sg88
g98
sS'RecMemTask.thisTrialN'
p532
I41
sg40
g41
sg43
I1
sg154
VStimuli/7F_NC.bmp
p533
sg46
I1
sg32
g33
sg19
I2000
sg60
g61
sg20
I118376
sg66
g11
sS'RecMemTask.thisRepN'
p534
I0
sg68
I01
sg71
g72
sg62
g63
sg18
I120368
sg54
I1
sg24
I120368
sg25
I500
sg26
I120869
sg84
g85
sg74
I0
sg157
g170
sg81
g63
sg99
I1
sa(dp535
g17
I120873
sg143
g144
sg16
g145
sg44
g45
sg42
I1
sS'RecMemTask.thisN'
p536
I42
sg64
g65
sg47
g48
sg49
g50
sg51
I0
sg23
I122867
sg52
g53
sg55
g56
sg57
g58
sS'RecMemTask.thisIndex'
p537
g89
(g125
S'*\x00\x00\x00\x00\x00\x00\x00'
p538
tp539
Rp540
sg151
g152
sg14
g65
sg59
I0
sg67
I160
sg21
I122867
sg69
g70
sg73
I0
sg22
I0
sg75
g76
sg77
g78
sg28
I0
sg79
g80
sg27
I123367
sg82
I0
sg83
I00
sg15
I0
sg86
g87
sg88
g98
sS'RecMemTask.thisTrialN'
p541
I42
sg40
g41
sg43
I1
sg154
g155
sg46
I1
sg32
g33
sg19
I2000
sg60
g61
sg20
I120873
sg66
g11
sS'RecMemTask.thisRepN'
p542
I0
sg68
I01
sg71
g72
sg62
g63
sg18
I122867
sg54
I1
sg24
I122867
sg25
I500
sg26
I123367
sg84
g85
sg74
I0
sg157
g145
sg81
g63
sg99
I1
sa(dp543
g17
I123374
sg143
g169
sg16
g170
sg44
g45
sg42
I1
sS'RecMemTask.thisN'
p544
I43
sg64
g65
sg47
g48
sg49
g50
sg51
I0
sg23
I125367
sg52
g53
sg55
g56
sg57
g58
sS'RecMemTask.thisIndex'
p545
g89
(g125
S'+\x00\x00\x00\x00\x00\x00\x00'
p546
tp547
Rp548
sg151
g152
sg14
g65
sg59
I0
sg67
I160
sg21
I125367
sg69
g70
sg73
I0
sg22
I0
sg75
g76
sg77
g78
sg28
I0
sg79
g80
sg27
I125868
sg82
I0
sg83
I00
sg15
I0
sg86
g87
sg88
g98
sS'RecMemTask.thisTrialN'
p549
I43
sg40
g41
sg43
I1
sg154
VStimuli/26M_NC.bmp
p550
sg46
I1
sg32
g33
sg19
I2000
sg60
g61
sg20
I123375
sg66
g11
sS'RecMemTask.thisRepN'
p551
I0
sg68
I01
sg71
g72
sg62
g63
sg18
I125367
sg54
I1
sg24
I125367
sg25
I500
sg26
I125868
sg84
g85
sg74
I0
sg157
g170
sg81
g63
sg99
I1
sa(dp552
g17
I125876
sg143
g180
sg16
g170
sg44
g45
sg42
I1
sS'RecMemTask.thisN'
p553
I44
sg64
g65
sg47
g48
sg49
g50
sg51
I0
sg23
I127868
sg52
g53
sg55
g56
sg57
g58
sS'RecMemTask.thisIndex'
p554
g89
(g125
S',\x00\x00\x00\x00\x00\x00\x00'
p555
tp556
Rp557
sg151
g152
sg14
g65
sg59
I0
sg67
I160
sg21
I127868
sg69
g70
sg73
I0
sg22
I0
sg75
g76
sg77
g78
sg28
I0
sg79
g80
sg27
I128368
sg82
I0
sg83
I00
sg15
I0
sg86
g87
sg88
g98
sS'RecMemTask.thisTrialN'
p558
I44
sg40
g41
sg43
I1
sg154
VStimuli/PL_007_92026.bmp
p559
sg46
I1
sg32
g33
sg19
I2000
sg60
g61
sg20
I125877
sg66
g11
sS'RecMemTask.thisRepN'
p560
I0
sg68
I01
sg71
g72
sg62
g63
sg18
I127868
sg54
I1
sg24
I127868
sg25
I500
sg26
I128368
sg84
g85
sg74
I0
sg157
g170
sg81
g63
sg99
I1
sa(dp561
g17
I128376
sg143
g190
sg16
g145
sg44
g45
sg42
I1
sS'RecMemTask.thisN'
p562
I45
sg64
g65
sg47
g48
sg49
g50
sg51
I0
sg23
I130360
sg52
g53
sg55
g56
sg57
g58
sS'RecMemTask.thisIndex'
p563
g89
(g125
S'-\x00\x00\x00\x00\x00\x00\x00'
p564
tp565
Rp566
sg151
g152
sg14
g65
sg59
I0
sg67
I160
sg21
I130360
sg69
g70
sg73
I0
sg22
I0
sg75
g76
sg77
g78
sg28
I0
sg79
g80
sg27
I130859
sg82
I0
sg83
I00
sg15
I0
sg86
g87
sg88
g98
sS'RecMemTask.thisTrialN'
p567
I45
sg40
g41
sg43
I1
sg154
VStimuli/HM01_HO.bmp
p568
sg46
I1
sg32
g33
sg19
I2000
sg60
g61
sg20
I128377
sg66
g11
sS'RecMemTask.thisRepN'
p569
I0
sg68
I01
sg71
g72
sg62
g63
sg18
I130360
sg54
I1
sg24
I130360
sg25
I500
sg26
I130859
sg84
g85
sg74
I0
sg157
g145
sg81
g63
sg99
I1
sa(dp570
g17
I130866
sg143
g238
sg16
g170
sg44
g45
sg42
I1
sS'RecMemTask.thisN'
p571
I46
sg64
g65
sg47
g48
sg49
g50
sg51
I0
sg23
I132870
sg52
g53
sg55
g56
sg57
g58
sS'RecMemTask.thisIndex'
p572
g89
(g125
S'.\x00\x00\x00\x00\x00\x00\x00'
p573
tp574
Rp575
sg151
g152
sg14
g65
sg59
I0
sg67
I160
sg21
I132870
sg69
g70
sg73
I0
sg22
I0
sg75
g76
sg77
g78
sg28
I0
sg79
g80
sg27
I133371
sg82
I0
sg83
I00
sg15
I0
sg86
g87
sg88
g98
sS'RecMemTask.thisTrialN'
p576
I46
sg40
g41
sg43
I1
sg154
VStimuli/BM08_HO.bmp
p577
sg46
I1
sg32
g33
sg19
I2000
sg60
g61
sg20
I130867
sg66
g11
sS'RecMemTask.thisRepN'
p578
I0
sg68
I01
sg71
g72
sg62
g63
sg18
I132870
sg54
I1
sg24
I132870
sg25
I500
sg26
I133371
sg84
g85
sg74
I0
sg157
g170
sg81
g63
sg99
I1
sa(dp579
g17
I133378
sg143
g219
sg16
g145
sg44
g45
sg42
I1
sS'RecMemTask.thisN'
p580
I47
sg64
g65
sg47
g48
sg49
g50
sg51
I0
sg23
I135372
sg52
g53
sg55
g56
sg57
g58
sS'RecMemTask.thisIndex'
p581
g89
(g125
S'/\x00\x00\x00\x00\x00\x00\x00'
p582
tp583
Rp584
sg151
g152
sg14
g65
sg59
I0
sg67
I160
sg21
I135373
sg69
g70
sg73
I0
sg22
I0
sg75
g76
sg77
g78
sg28
I0
sg79
g80
sg27
I135872
sg82
I0
sg83
I00
sg15
I0
sg86
g87
sg88
g98
sS'RecMemTask.thisTrialN'
p585
I47
sg40
g41
sg43
I1
sg154
VStimuli/WF015_FO.bmp
p586
sg46
I1
sg32
g33
sg19
I2000
sg60
g61
sg20
I133378
sg66
g11
sS'RecMemTask.thisRepN'
p587
I0
sg68
I01
sg71
g72
sg62
g63
sg18
I135373
sg54
I1
sg24
I135373
sg25
I500
sg26
I135872
sg84
g85
sg74
I0
sg157
g145
sg81
g63
sg99
I1
sa(dp588
g17
I135879
sg143
g209
sg16
g170
sg44
g45
sg42
I1
sS'RecMemTask.thisN'
p589
I48
sg64
g65
sg47
g48
sg49
g50
sg51
I0
sg23
I137877
sg52
g53
sg55
g56
sg57
g58
sS'RecMemTask.thisIndex'
p590
g89
(g125
S'0\x00\x00\x00\x00\x00\x00\x00'
p591
tp592
Rp593
sg151
g152
sg14
g65
sg59
I0
sg67
I160
sg21
I137877
sg69
g70
sg73
I0
sg22
I0
sg75
g76
sg77
g78
sg28
I0
sg79
g80
sg27
I138376
sg82
I0
sg83
I00
sg15
I0
sg86
g87
sg88
g98
sS'RecMemTask.thisTrialN'
p594
I48
sg40
g41
sg43
I1
sg154
VStimuli/AM05_FO.bmp
p595
sg46
I1
sg32
g33
sg19
I2000
sg60
g61
sg20
I135880
sg66
g11
sS'RecMemTask.thisRepN'
p596
I0
sg68
I01
sg71
g72
sg62
g63
sg18
I137877
sg54
I1
sg24
I137877
sg25
I500
sg26
I138376
sg84
g85
sg74
I0
sg157
g170
sg81
g63
sg99
I1
sa(dp597
g17
I138383
sg143
g219
sg16
g145
sg44
g45
sg42
I1
sS'RecMemTask.thisN'
p598
I49
sg64
g65
sg47
g48
sg49
g50
sg51
I0
sg23
I140370
sg52
g53
sg55
g56
sg57
g58
sS'RecMemTask.thisIndex'
p599
g89
(g125
S'1\x00\x00\x00\x00\x00\x00\x00'
p600
tp601
Rp602
sg151
g152
sg14
g65
sg59
I0
sg67
I160
sg21
I140370
sg69
g70
sg73
I0
sg22
I0
sg75
g76
sg77
g78
sg28
I0
sg79
g80
sg27
I140869
sg82
I0
sg83
I00
sg15
I0
sg86
g87
sg88
g98
sS'RecMemTask.thisTrialN'
p603
I49
sg40
g41
sg43
I1
sg154
VStimuli/BF05_FO.bmp
p604
sg46
I1
sg32
g33
sg19
I2000
sg60
g61
sg20
I138383
sg66
g11
sS'RecMemTask.thisRepN'
p605
I0
sg68
I01
sg71
g72
sg62
g63
sg18
I140370
sg54
I1
sg24
I140370
sg25
I500
sg26
I140869
sg84
g85
sg74
I0
sg157
g145
sg81
g63
sg99
I1
sa(dp606
g17
I140877
sg143
g169
sg16
g170
sg44
g45
sg42
I1
sS'RecMemTask.thisN'
p607
I50
sg64
g65
sg47
g48
sg49
g50
sg51
I0
sg23
I142861
sg52
g53
sg55
g56
sg57
g58
sS'RecMemTask.thisIndex'
p608
g89
(g125
S'2\x00\x00\x00\x00\x00\x00\x00'
p609
tp610
Rp611
sg151
g152
sg14
g65
sg59
I0
sg67
I160
sg21
I142861
sg69
g70
sg73
I0
sg22
I0
sg75
g76
sg77
g78
sg28
I0
sg79
g80
sg27
I143375
sg82
I0
sg83
I00
sg15
I0
sg86
g87
sg88
g98
sS'RecMemTask.thisTrialN'
p612
I50
sg40
g41
sg43
I1
sg154
VStimuli/AM04_NC.bmp
p613
sg46
I1
sg32
g33
sg19
I2000
sg60
g61
sg20
I140877
sg66
g11
sS'RecMemTask.thisRepN'
p614
I0
sg68
I01
sg71
g72
sg62
g63
sg18
I142861
sg54
I1
sg24
I142861
sg25
I500
sg26
I143375
sg84
g85
sg74
I0
sg157
g170
sg81
g63
sg99
I1
sa(dp615
g17
I143382
sg143
g159
sg16
g145
sg44
g45
sg42
I1
sS'RecMemTask.thisN'
p616
I51
sg64
g65
sg47
g48
sg49
g50
sg51
I0
sg23
I145370
sg52
g53
sg55
g56
sg57
g58
sS'RecMemTask.thisIndex'
p617
g89
(g125
S'3\x00\x00\x00\x00\x00\x00\x00'
p618
tp619
Rp620
sg151
g152
sg14
g65
sg59
I0
sg67
I160
sg21
I145370
sg69
g70
sg73
I0
sg22
I0
sg75
g76
sg77
g78
sg28
I0
sg79
g80
sg27
I145869
sg82
I0
sg83
I00
sg15
I0
sg86
g87
sg88
g98
sS'RecMemTask.thisTrialN'
p621
I51
sg40
g41
sg43
I1
sg154
VStimuli/PL_094_O6.1.bmp
p622
sg46
I1
sg32
g33
sg19
I2000
sg60
g61
sg20
I143382
sg66
g11
sS'RecMemTask.thisRepN'
p623
I0
sg68
I01
sg71
g72
sg62
g63
sg18
I145370
sg54
I1
sg24
I145370
sg25
I500
sg26
I145869
sg84
g85
sg74
I0
sg157
g145
sg81
g63
sg99
I1
sa(dp624
g17
I145877
sg143
g180
sg16
g170
sg44
g45
sg42
I1
sS'RecMemTask.thisN'
p625
I52
sg64
g65
sg47
g48
sg49
g50
sg51
I0
sg23
I147870
sg52
g53
sg55
g56
sg57
g58
sS'RecMemTask.thisIndex'
p626
g89
(g125
S'4\x00\x00\x00\x00\x00\x00\x00'
p627
tp628
Rp629
sg151
g152
sg14
g65
sg59
I0
sg67
I160
sg21
I147870
sg69
g70
sg73
I0
sg22
I0
sg75
g76
sg77
g78
sg28
I0
sg79
g80
sg27
I148370
sg82
I0
sg83
I00
sg15
I0
sg86
g87
sg88
g98
sS'RecMemTask.thisTrialN'
p630
I52
sg40
g41
sg43
I1
sg154
VStimuli/PL_046_SCENE03.bmp
p631
sg46
I1
sg32
g33
sg19
I2000
sg60
g61
sg20
I145878
sg66
g11
sS'RecMemTask.thisRepN'
p632
I0
sg68
I01
sg71
g72
sg62
g63
sg18
I147870
sg54
I1
sg24
I147871
sg25
I500
sg26
I148370
sg84
g85
sg74
I0
sg157
g170
sg81
g63
sg99
I1
sa(dp633
g17
I148377
sg143
g144
sg16
g145
sg44
g45
sg42
I1
sS'RecMemTask.thisN'
p634
I53
sg64
g65
sg47
g48
sg49
g50
sg51
I0
sg23
I150370
sg52
g53
sg55
g56
sg57
g58
sS'RecMemTask.thisIndex'
p635
g89
(g125
S'5\x00\x00\x00\x00\x00\x00\x00'
p636
tp637
Rp638
sg151
g152
sg14
g65
sg59
I0
sg67
I160
sg21
I150370
sg69
g70
sg73
I0
sg22
I0
sg75
g76
sg77
g78
sg28
I0
sg79
g80
sg27
I150871
sg82
I0
sg83
I00
sg15
I0
sg86
g87
sg88
g98
sS'RecMemTask.thisTrialN'
p639
I53
sg40
g41
sg43
I1
sg154
VStimuli/BF03_NC.bmp
p640
sg46
I1
sg32
g33
sg19
I2000
sg60
g61
sg20
I148378
sg66
g11
sS'RecMemTask.thisRepN'
p641
I0
sg68
I01
sg71
g72
sg62
g63
sg18
I150370
sg54
I1
sg24
I150370
sg25
I500
sg26
I150871
sg84
g85
sg74
I0
sg157
g145
sg81
g63
sg99
I1
sa(dp642
g17
I150880
sg143
g238
sg16
g170
sg44
g45
sg42
I1
sS'RecMemTask.thisN'
p643
I54
sg64
g65
sg47
g48
sg49
g50
sg51
I0
sg23
I152871
sg52
g53
sg55
g56
sg57
g58
sS'RecMemTask.thisIndex'
p644
g89
(g125
S'6\x00\x00\x00\x00\x00\x00\x00'
p645
tp646
Rp647
sg151
g152
sg14
g65
sg59
I0
sg67
I160
sg21
I152871
sg69
g70
sg73
I0
sg22
I0
sg75
g76
sg77
g78
sg28
I0
sg79
g80
sg27
I153371
sg82
I0
sg83
I00
sg15
I0
sg86
g87
sg88
g98
sS'RecMemTask.thisTrialN'
p648
I54
sg40
g41
sg43
I1
sg154
VStimuli/32M_HO.bmp
p649
sg46
I1
sg32
g33
sg19
I2000
sg60
g61
sg20
I150880
sg66
g11
sS'RecMemTask.thisRepN'
p650
I0
sg68
I01
sg71
g72
sg62
g63
sg18
I152871
sg54
I1
sg24
I152871
sg25
I500
sg26
I153371
sg84
g85
sg74
I0
sg157
g170
sg81
g63
sg99
I1
sa(dp651
g17
I153380
sg143
g190
sg16
g145
sg44
g45
sg42
I1
sS'RecMemTask.thisN'
p652
I55
sg64
g65
sg47
g48
sg49
g50
sg51
I0
sg23
I155372
sg52
g53
sg55
g56
sg57
g58
sS'RecMemTask.thisIndex'
p653
g89
(g125
S'7\x00\x00\x00\x00\x00\x00\x00'
p654
tp655
Rp656
sg151
g152
sg14
g65
sg59
I0
sg67
I160
sg21
I155372
sg69
g70
sg73
I0
sg22
I0
sg75
g76
sg77
g78
sg28
I0
sg79
g80
sg27
I155871
sg82
I0
sg83
I00
sg15
I0
sg86
g87
sg88
g98
sS'RecMemTask.thisTrialN'
p657
I55
sg40
g41
sg43
I1
sg154
VStimuli/BM01_HO.bmp
p658
sg46
I1
sg32
g33
sg19
I2000
sg60
g61
sg20
I153381
sg66
g11
sS'RecMemTask.thisRepN'
p659
I0
sg68
I01
sg71
g72
sg62
g63
sg18
I155372
sg54
I1
sg24
I155372
sg25
I500
sg26
I155871
sg84
g85
sg74
I0
sg157
g145
sg81
g63
sg99
I1
sa(dp660
g17
I155880
sg143
g238
sg16
g170
sg44
g45
sg42
I1
sS'RecMemTask.thisN'
p661
I56
sg64
g65
sg47
g48
sg49
g50
sg51
I0
sg23
I157871
sg52
g53
sg55
g56
sg57
g58
sS'RecMemTask.thisIndex'
p662
g89
(g125
S'8\x00\x00\x00\x00\x00\x00\x00'
p663
tp664
Rp665
sg151
g152
sg14
g65
sg59
I0
sg67
I160
sg21
I157871
sg69
g70
sg73
I0
sg22
I0
sg75
g76
sg77
g78
sg28
I0
sg79
g80
sg27
I158363
sg82
I0
sg83
I00
sg15
I0
sg86
g87
sg88
g98
sS'RecMemTask.thisTrialN'
p666
I56
sg40
g41
sg43
I1
sg154
VStimuli/BM06_HO.bmp
p667
sg46
I1
sg32
g33
sg19
I2000
sg60
g61
sg20
I155880
sg66
g11
sS'RecMemTask.thisRepN'
p668
I0
sg68
I01
sg71
g72
sg62
g63
sg18
I157871
sg54
I1
sg24
I157872
sg25
I500
sg26
I158363
sg84
g85
sg74
I0
sg157
g170
sg81
g63
sg99
I1
sa(dp669
g17
I158370
sg143
g144
sg16
g145
sg44
g45
sg42
I1
sS'RecMemTask.thisN'
p670
I57
sg64
g65
sg47
g48
sg49
g50
sg51
I0
sg23
I160372
sg52
g53
sg55
g56
sg57
g58
sS'RecMemTask.thisIndex'
p671
g89
(g125
S'9\x00\x00\x00\x00\x00\x00\x00'
p672
tp673
Rp674
sg151
g152
sg14
g65
sg59
I0
sg67
I160
sg21
I160372
sg69
g70
sg73
I0
sg22
I0
sg75
g76
sg77
g78
sg28
I0
sg79
g80
sg27
I160872
sg82
I0
sg83
I00
sg15
I0
sg86
g87
sg88
g98
sS'RecMemTask.thisTrialN'
p675
I57
sg40
g41
sg43
I1
sg154
VStimuli/AM204_NC.bmp
p676
sg46
I1
sg32
g33
sg19
I2000
sg60
g61
sg20
I158370
sg66
g11
sS'RecMemTask.thisRepN'
p677
I0
sg68
I01
sg71
g72
sg62
g63
sg18
I160372
sg54
I1
sg24
I160372
sg25
I500
sg26
I160872
sg84
g85
sg74
I0
sg157
g145
sg81
g63
sg99
I1
sa(dp678
g17
I160880
sg143
g219
sg16
g145
sg44
g45
sg42
I1
sS'RecMemTask.thisN'
p679
I58
sg64
g65
sg47
g48
sg49
g50
sg51
I0
sg23
I162862
sg52
g53
sg55
g56
sg57
g58
sS'RecMemTask.thisIndex'
p680
g89
(g125
S':\x00\x00\x00\x00\x00\x00\x00'
p681
tp682
Rp683
sg151
g152
sg14
g65
sg59
I0
sg67
I160
sg21
I162862
sg69
g70
sg73
I0
sg22
I0
sg75
g76
sg77
g78
sg28
I0
sg79
g80
sg27
I163373
sg82
I0
sg83
I00
sg15
I0
sg86
g87
sg88
g98
sS'RecMemTask.thisTrialN'
p684
I58
sg40
g41
sg43
I1
sg154
VStimuli/AF01_FO.bmp
p685
sg46
I1
sg32
g33
sg19
I2000
sg60
g61
sg20
I160881
sg66
g11
sS'RecMemTask.thisRepN'
p686
I0
sg68
I01
sg71
g72
sg62
g63
sg18
I162862
sg54
I1
sg24
I162863
sg25
I500
sg26
I163373
sg84
g85
sg74
I0
sg157
g145
sg81
g63
sg99
I1
sa(dp687
g17
I163380
sg143
g159
sg16
g145
sg44
g45
sg42
I1
sS'RecMemTask.thisN'
p688
I59
sg64
g65
sg47
g48
sg49
g50
sg51
I0
sg23
I165372
sg52
g53
sg55
g56
sg57
g58
sS'RecMemTask.thisIndex'
p689
g89
(g125
S';\x00\x00\x00\x00\x00\x00\x00'
p690
tp691
Rp692
sg151
g152
sg14
g65
sg59
I0
sg67
I160
sg21
I165372
sg69
g70
sg73
I0
sg22
I0
sg75
g76
sg77
g78
sg28
I0
sg79
g80
sg27
I165872
sg82
I0
sg83
I00
sg15
I0
sg86
g87
sg88
g98
sS'RecMemTask.thisTrialN'
p693
I59
sg40
g41
sg43
I1
sg154
VStimuli/PL_091_O5.1.bmp
p694
sg46
I1
sg32
g33
sg19
I2000
sg60
g61
sg20
I163381
sg66
g11
sS'RecMemTask.thisRepN'
p695
I0
sg68
I01
sg71
g72
sg62
g63
sg18
I165372
sg54
I1
sg24
I165372
sg25
I500
sg26
I165872
sg84
g85
sg74
I0
sg157
g145
sg81
g63
sg99
I1
sa(dp696
g17
I165882
sg143
g209
sg16
g170
sg44
g45
sg42
I1
sS'RecMemTask.thisN'
p697
I60
sg64
g65
sg47
g48
sg49
g50
sg51
I0
sg23
I167873
sg52
g53
sg55
g56
sg57
g58
sS'RecMemTask.thisIndex'
p698
g89
(g125
S'<\x00\x00\x00\x00\x00\x00\x00'
p699
tp700
Rp701
sg151
g152
sg14
g65
sg59
I0
sg67
I160
sg21
I167873
sg69
g70
sg73
I0
sg22
I0
sg75
g76
sg77
g78
sg28
I0
sg79
g80
sg27
I168372
sg82
I0
sg83
I00
sg15
I0
sg86
g87
sg88
g98
sS'RecMemTask.thisTrialN'
p702
I60
sg40
g41
sg43
I1
sg154
VStimuli/43M_FO.bmp
p703
sg46
I1
sg32
g33
sg19
I2000
sg60
g61
sg20
I165883
sg66
g11
sS'RecMemTask.thisRepN'
p704
I0
sg68
I01
sg71
g72
sg62
g63
sg18
I167873
sg54
I1
sg24
I167873
sg25
I500
sg26
I168372
sg84
g85
sg74
I0
sg157
g170
sg81
g63
sg99
I1
sa(dp705
g17
I168381
sg143
g169
sg16
g170
sg44
g45
sg42
I1
sS'RecMemTask.thisN'
p706
I61
sg64
g65
sg47
g48
sg49
g50
sg51
I0
sg23
I170376
sg52
g53
sg55
g56
sg57
g58
sS'RecMemTask.thisIndex'
p707
g89
(g125
S'=\x00\x00\x00\x00\x00\x00\x00'
p708
tp709
Rp710
sg151
g152
sg14
g65
sg59
I0
sg67
I160
sg21
I170376
sg69
g70
sg73
I0
sg22
I0
sg75
g76
sg77
g78
sg28
I0
sg79
g80
sg27
I170873
sg82
I0
sg83
I00
sg15
I0
sg86
g87
sg88
g98
sS'RecMemTask.thisTrialN'
p711
I61
sg40
g41
sg43
I1
sg154
VStimuli/BM04_NC.bmp
p712
sg46
I1
sg32
g33
sg19
I2000
sg60
g61
sg20
I168381
sg66
g11
sS'RecMemTask.thisRepN'
p713
I0
sg68
I01
sg71
g72
sg62
g63
sg18
I170376
sg54
I1
sg24
I170376
sg25
I500
sg26
I170873
sg84
g85
sg74
I0
sg157
g170
sg81
g63
sg99
I1
sa(dp714
g17
I170882
sg143
g180
sg16
g170
sg44
g45
sg42
I1
sS'RecMemTask.thisN'
p715
I62
sg64
g65
sg47
g48
sg49
g50
sg51
I0
sg23
I172868
sg52
g53
sg55
g56
sg57
g58
sS'RecMemTask.thisIndex'
p716
g89
(g125
S'>\x00\x00\x00\x00\x00\x00\x00'
p717
tp718
Rp719
sg151
g152
sg14
g65
sg59
I0
sg67
I160
sg21
I172868
sg69
g70
sg73
I0
sg22
I0
sg75
g76
sg77
g78
sg28
I0
sg79
g80
sg27
I173368
sg82
I0
sg83
I00
sg15
I0
sg86
g87
sg88
g98
sS'RecMemTask.thisTrialN'
p720
I62
sg40
g41
sg43
I1
sg154
VStimuli/PL_045_SCENE02.bmp
p721
sg46
I1
sg32
g33
sg19
I2000
sg60
g61
sg20
I170883
sg66
g11
sS'RecMemTask.thisRepN'
p722
I0
sg68
I01
sg71
g72
sg62
g63
sg18
I172868
sg54
I1
sg24
I172868
sg25
I500
sg26
I173368
sg84
g85
sg74
I0
sg157
g170
sg81
g63
sg99
I1
sa(dp723
g17
I173376
sg143
g190
sg16
g145
sg44
g45
sg42
I1
sS'RecMemTask.thisN'
p724
I63
sg64
g65
sg47
g48
sg49
g50
sg51
I0
sg23
I175367
sg52
g53
sg55
g56
sg57
g58
sS'RecMemTask.thisIndex'
p725
g89
(g125
S'?\x00\x00\x00\x00\x00\x00\x00'
p726
tp727
Rp728
sg151
g152
sg14
g65
sg59
I0
sg67
I160
sg21
I175367
sg69
g70
sg73
I0
sg22
I0
sg75
g76
sg77
g78
sg28
I0
sg79
g80
sg27
I175863
sg82
I0
sg83
I00
sg15
I0
sg86
g87
sg88
g98
sS'RecMemTask.thisTrialN'
p729
I63
sg40
g41
sg43
I1
sg154
VStimuli/2F_HO.bmp
p730
sg46
I1
sg32
g33
sg19
I2000
sg60
g61
sg20
I173376
sg66
g11
sS'RecMemTask.thisRepN'
p731
I0
sg68
I01
sg71
g72
sg62
g63
sg18
I175367
sg54
I1
sg24
I175367
sg25
I500
sg26
I175863
sg84
g85
sg74
I0
sg157
g145
sg81
g63
sg99
I1
sa(dp732
g17
I175870
sg143
g190
sg16
g145
sg44
g45
sg42
I1
sS'RecMemTask.thisN'
p733
I64
sg64
g65
sg47
g48
sg49
g50
sg51
I0
sg23
I177875
sg52
g53
sg55
g56
sg57
g58
sS'RecMemTask.thisIndex'
p734
g89
(g125
S'@\x00\x00\x00\x00\x00\x00\x00'
p735
tp736
Rp737
sg151
g152
sg14
g65
sg59
I0
sg67
I160
sg21
I177875
sg69
g70
sg73
I0
sg22
I0
sg75
g76
sg77
g78
sg28
I0
sg79
g80
sg27
I178373
sg82
I0
sg83
I00
sg15
I0
sg86
g87
sg88
g98
sS'RecMemTask.thisTrialN'
p738
I64
sg40
g41
sg43
I1
sg154
VStimuli/31M_HO.bmp
p739
sg46
I1
sg32
g33
sg19
I2000
sg60
g61
sg20
I175871
sg66
g11
sS'RecMemTask.thisRepN'
p740
I0
sg68
I01
sg71
g72
sg62
g63
sg18
I177875
sg54
I1
sg24
I177875
sg25
I500
sg26
I178373
sg84
g85
sg74
I0
sg157
g145
sg81
g63
sg99
I1
sa(dp741
g17
I178380
sg143
g144
sg16
g145
sg44
g45
sg42
I1
sS'RecMemTask.thisN'
p742
I65
sg64
g65
sg47
g48
sg49
g50
sg51
I0
sg23
I180379
sg52
g53
sg55
g56
sg57
g58
sS'RecMemTask.thisIndex'
p743
g89
(g125
S'A\x00\x00\x00\x00\x00\x00\x00'
p744
tp745
Rp746
sg151
g152
sg14
g65
sg59
I0
sg67
I160
sg21
I180379
sg69
g70
sg73
I0
sg22
I0
sg75
g76
sg77
g78
sg28
I0
sg79
g80
sg27
I180859
sg82
I0
sg83
I00
sg15
I0
sg86
g87
sg88
g98
sS'RecMemTask.thisTrialN'
p747
I65
sg40
g41
sg43
I1
sg154
VStimuli/LM242_NC.bmp
p748
sg46
I1
sg32
g33
sg19
I2000
sg60
g61
sg20
I178381
sg66
g11
sS'RecMemTask.thisRepN'
p749
I0
sg68
I01
sg71
g72
sg62
g63
sg18
I180379
sg54
I1
sg24
I180379
sg25
I500
sg26
I180859
sg84
g85
sg74
I0
sg157
g145
sg81
g63
sg99
I1
sa(dp750
g17
I180866
sg143
g180
sg16
g170
sg44
g45
sg42
I1
sS'RecMemTask.thisN'
p751
I66
sg64
g65
sg47
g48
sg49
g50
sg51
I0
sg23
I182876
sg52
g53
sg55
g56
sg57
g58
sS'RecMemTask.thisIndex'
p752
g89
(g125
S'B\x00\x00\x00\x00\x00\x00\x00'
p753
tp754
Rp755
sg151
g152
sg14
g65
sg59
I0
sg67
I160
sg21
I182876
sg69
g70
sg73
I0
sg22
I0
sg75
g76
sg77
g78
sg28
I0
sg79
g80
sg27
I183374
sg82
I0
sg83
I00
sg15
I0
sg86
g87
sg88
g98
sS'RecMemTask.thisTrialN'
p756
I66
sg40
g41
sg43
I1
sg154
VStimuli/PL_044_SCENE01.bmp
p757
sg46
I1
sg32
g33
sg19
I2000
sg60
g61
sg20
I180866
sg66
g11
sS'RecMemTask.thisRepN'
p758
I0
sg68
I01
sg71
g72
sg62
g63
sg18
I182876
sg54
I1
sg24
I182876
sg25
I500
sg26
I183374
sg84
g85
sg74
I0
sg157
g170
sg81
g63
sg99
I1
sa(dp759
g17
I183383
sg143
g238
sg16
g170
sg44
g45
sg42
I1
sS'RecMemTask.thisN'
p760
I67
sg64
g65
sg47
g48
sg49
g50
sg51
I0
sg23
I185365
sg52
g53
sg55
g56
sg57
g58
sS'RecMemTask.thisIndex'
p761
g89
(g125
S'C\x00\x00\x00\x00\x00\x00\x00'
p762
tp763
Rp764
sg151
g152
sg14
g65
sg59
I0
sg67
I160
sg21
I185365
sg69
g70
sg73
I0
sg22
I0
sg75
g76
sg77
g78
sg28
I0
sg79
g80
sg27
I185865
sg82
I0
sg83
I00
sg15
I0
sg86
g87
sg88
g98
sS'RecMemTask.thisTrialN'
p765
I67
sg40
g41
sg43
I1
sg154
VStimuli/HF02_HO.bmp
p766
sg46
I1
sg32
g33
sg19
I2000
sg60
g61
sg20
I183383
sg66
g11
sS'RecMemTask.thisRepN'
p767
I0
sg68
I01
sg71
g72
sg62
g63
sg18
I185365
sg54
I1
sg24
I185365
sg25
I500
sg26
I185865
sg84
g85
sg74
I0
sg157
g170
sg81
g63
sg99
I1
sa(dp768
g17
I185871
sg143
g219
sg16
g145
sg44
g45
sg42
I1
sS'RecMemTask.thisN'
p769
I68
sg64
g65
sg47
g48
sg49
g50
sg51
I0
sg23
I187859
sg52
g53
sg55
g56
sg57
g58
sS'RecMemTask.thisIndex'
p770
g89
(g125
S'D\x00\x00\x00\x00\x00\x00\x00'
p771
tp772
Rp773
sg151
g152
sg14
g65
sg59
I0
sg67
I160
sg21
I187859
sg69
g70
sg73
I0
sg22
I0
sg75
g76
sg77
g78
sg28
I0
sg79
g80
sg27
I188375
sg82
I0
sg83
I00
sg15
I0
sg86
g87
sg88
g98
sS'RecMemTask.thisTrialN'
p774
I68
sg40
g41
sg43
I1
sg154
VStimuli/38M_FO.bmp
p775
sg46
I1
sg32
g33
sg19
I2000
sg60
g61
sg20
I185872
sg66
g11
sS'RecMemTask.thisRepN'
p776
I0
sg68
I01
sg71
g72
sg62
g63
sg18
I187859
sg54
I1
sg24
I187859
sg25
I500
sg26
I188375
sg84
g85
sg74
I0
sg157
g145
sg81
g63
sg99
I1
sa(dp777
g17
I188383
sg143
g169
sg16
g170
sg44
g45
sg42
I1
sS'RecMemTask.thisN'
p778
I69
sg64
g65
sg47
g48
sg49
g50
sg51
I0
sg23
I190362
sg52
g53
sg55
g56
sg57
g58
sS'RecMemTask.thisIndex'
p779
g89
(g125
S'E\x00\x00\x00\x00\x00\x00\x00'
p780
tp781
Rp782
sg151
g152
sg14
g65
sg59
I0
sg67
I160
sg21
I190362
sg69
g70
sg73
I0
sg22
I0
sg75
g76
sg77
g78
sg28
I0
sg79
g80
sg27
I190865
sg82
I0
sg83
I00
sg15
I0
sg86
g87
sg88
g98
sS'RecMemTask.thisTrialN'
p783
I69
sg40
g41
sg43
I1
sg154
VStimuli/LF209_NC.bmp
p784
sg46
I1
sg32
g33
sg19
I2000
sg60
g61
sg20
I188384
sg66
g11
sS'RecMemTask.thisRepN'
p785
I0
sg68
I01
sg71
g72
sg62
g63
sg18
I190362
sg54
I1
sg24
I190362
sg25
I500
sg26
I190865
sg84
g85
sg74
I0
sg157
g170
sg81
g63
sg99
I1
sa(dp786
g17
I190872
sg143
g159
sg16
g145
sg44
g45
sg42
I1
sS'RecMemTask.thisN'
p787
I70
sg64
g65
sg47
g48
sg49
g50
sg51
I0
sg23
I192859
sg52
g53
sg55
g56
sg57
g58
sS'RecMemTask.thisIndex'
p788
g89
(g125
S'F\x00\x00\x00\x00\x00\x00\x00'
p789
tp790
Rp791
sg151
g152
sg14
g65
sg59
I0
sg67
I160
sg21
I192859
sg69
g70
sg73
I0
sg22
I0
sg75
g76
sg77
g78
sg28
I0
sg79
g80
sg27
I193376
sg82
I0
sg83
I00
sg15
I0
sg86
g87
sg88
g98
sS'RecMemTask.thisTrialN'
p792
I70
sg40
g41
sg43
I1
sg154
VStimuli/PL_093_O57.1.bmp
p793
sg46
I1
sg32
g33
sg19
I2000
sg60
g61
sg20
I190872
sg66
g11
sS'RecMemTask.thisRepN'
p794
I0
sg68
I01
sg71
g72
sg62
g63
sg18
I192859
sg54
I1
sg24
I192859
sg25
I500
sg26
I193376
sg84
g85
sg74
I0
sg157
g145
sg81
g63
sg99
I1
sa(dp795
g17
I193385
sg143
g169
sg16
g170
sg44
g45
sg42
I1
sS'RecMemTask.thisN'
p796
I71
sg64
g65
sg47
g48
sg49
g50
sg51
I0
sg23
I195360
sg52
g53
sg55
g56
sg57
g58
sS'RecMemTask.thisIndex'
p797
g89
(g125
S'G\x00\x00\x00\x00\x00\x00\x00'
p798
tp799
Rp800
sg151
g152
sg14
g65
sg59
I0
sg67
I160
sg21
I195360
sg69
g70
sg73
I0
sg22
I0
sg75
g76
sg77
g78
sg28
I0
sg79
g80
sg27
I195866
sg82
I0
sg83
I00
sg15
I0
sg86
g87
sg88
g98
sS'RecMemTask.thisTrialN'
p801
I71
sg40
g41
sg43
I1
sg154
VStimuli/AF216_NC.bmp
p802
sg46
I1
sg32
g33
sg19
I2000
sg60
g61
sg20
I193385
sg66
g11
sS'RecMemTask.thisRepN'
p803
I0
sg68
I01
sg71
g72
sg62
g63
sg18
I195360
sg54
I1
sg24
I195360
sg25
I500
sg26
I195866
sg84
g85
sg74
I0
sg157
g170
sg81
g63
sg99
I1
sa(dp804
g17
I195872
sg143
g144
sg16
g145
sg44
g45
sg42
I1
sS'RecMemTask.thisN'
p805
I72
sg64
g65
sg47
g48
sg49
g50
sg51
I0
sg23
I197860
sg52
g53
sg55
g56
sg57
g58
sS'RecMemTask.thisIndex'
p806
g89
(g125
S'H\x00\x00\x00\x00\x00\x00\x00'
p807
tp808
Rp809
sg151
g152
sg14
g65
sg59
I0
sg67
I160
sg21
I197860
sg69
g70
sg73
I0
sg22
I0
sg75
g76
sg77
g78
sg28
I0
sg79
g80
sg27
I198360
sg82
I0
sg83
I00
sg15
I0
sg86
g87
sg88
g98
sS'RecMemTask.thisTrialN'
p810
I72
sg40
g41
sg43
I1
sg154
VStimuli/30M_NC.bmp
p811
sg46
I1
sg32
g33
sg19
I2000
sg60
g61
sg20
I195872
sg66
g11
sS'RecMemTask.thisRepN'
p812
I0
sg68
I01
sg71
g72
sg62
g63
sg18
I197860
sg54
I1
sg24
I197860
sg25
I500
sg26
I198360
sg84
g85
sg74
I0
sg157
g145
sg81
g63
sg99
I1
sa(dp813
g17
I198368
sg143
g219
sg16
g145
sg44
g45
sg42
I1
sS'RecMemTask.thisN'
p814
I73
sg64
g65
sg47
g48
sg49
g50
sg51
I0
sg23
I200361
sg52
g53
sg55
g56
sg57
g58
sS'RecMemTask.thisIndex'
p815
g89
(g125
S'I\x00\x00\x00\x00\x00\x00\x00'
p816
tp817
Rp818
sg151
g152
sg14
g65
sg59
I0
sg67
I160
sg21
I200361
sg69
g70
sg73
I0
sg22
I0
sg75
g76
sg77
g78
sg28
I0
sg79
g80
sg27
I200868
sg82
I0
sg83
I00
sg15
I0
sg86
g87
sg88
g98
sS'RecMemTask.thisTrialN'
p819
I73
sg40
g41
sg43
I1
sg154
VStimuli/WM03_FO.bmp
p820
sg46
I1
sg32
g33
sg19
I2000
sg60
g61
sg20
I198368
sg66
g11
sS'RecMemTask.thisRepN'
p821
I0
sg68
I01
sg71
g72
sg62
g63
sg18
I200361
sg54
I1
sg24
I200361
sg25
I500
sg26
I200868
sg84
g85
sg74
I0
sg157
g145
sg81
g63
sg99
I1
sa(dp822
g17
I200875
sg143
g159
sg16
g145
sg44
g45
sg42
I1
sS'RecMemTask.thisN'
p823
I74
sg64
g65
sg47
g48
sg49
g50
sg51
I0
sg23
I202860
sg52
g53
sg55
g56
sg57
g58
sS'RecMemTask.thisIndex'
p824
g89
(g125
S'J\x00\x00\x00\x00\x00\x00\x00'
p825
tp826
Rp827
sg151
g152
sg14
g65
sg59
I0
sg67
I160
sg21
I202860
sg69
g70
sg73
I0
sg22
I0
sg75
g76
sg77
g78
sg28
I0
sg79
g80
sg27
I203367
sg82
I0
sg83
I00
sg15
I0
sg86
g87
sg88
g98
sS'RecMemTask.thisTrialN'
p828
I74
sg40
g41
sg43
I1
sg154
VStimuli/PL_100_O82.1.bmp
p829
sg46
I1
sg32
g33
sg19
I2000
sg60
g61
sg20
I200875
sg66
g11
sS'RecMemTask.thisRepN'
p830
I0
sg68
I01
sg71
g72
sg62
g63
sg18
I202860
sg54
I1
sg24
I202860
sg25
I500
sg26
I203367
sg84
g85
sg74
I0
sg157
g145
sg81
g63
sg99
I1
sa(dp831
g17
I203373
sg143
g190
sg16
g145
sg44
g45
sg42
I1
sS'RecMemTask.thisN'
p832
I75
sg64
g65
sg47
g48
sg49
g50
sg51
I0
sg23
I205361
sg52
g53
sg55
g56
sg57
g58
sS'RecMemTask.thisIndex'
p833
g89
(g125
S'K\x00\x00\x00\x00\x00\x00\x00'
p834
tp835
Rp836
sg151
g152
sg14
g65
sg59
I0
sg67
I160
sg21
I205361
sg69
g70
sg73
I0
sg22
I0
sg75
g76
sg77
g78
sg28
I0
sg79
g80
sg27
I205868
sg82
I0
sg83
I00
sg15
I0
sg86
g87
sg88
g98
sS'RecMemTask.thisTrialN'
p837
I75
sg40
g41
sg43
I1
sg154
VStimuli/BF009_HO.bmp
p838
sg46
I1
sg32
g33
sg19
I2000
sg60
g61
sg20
I203373
sg66
g11
sS'RecMemTask.thisRepN'
p839
I0
sg68
I01
sg71
g72
sg62
g63
sg18
I205361
sg54
I1
sg24
I205361
sg25
I500
sg26
I205868
sg84
g85
sg74
I0
sg157
g145
sg81
g63
sg99
I1
sa(dp840
g17
I205874
sg143
g209
sg16
g170
sg44
g45
sg42
I1
sS'RecMemTask.thisN'
p841
I76
sg64
g65
sg47
g48
sg49
g50
sg51
I0
sg23
I207867
sg52
g53
sg55
g56
sg57
g58
sS'RecMemTask.thisIndex'
p842
g89
(g125
S'L\x00\x00\x00\x00\x00\x00\x00'
p843
tp844
Rp845
sg151
g152
sg14
g65
sg59
I0
sg67
I160
sg21
I207867
sg69
g70
sg73
I0
sg22
I0
sg75
g76
sg77
g78
sg28
I0
sg79
g80
sg27
I208368
sg82
I0
sg83
I00
sg15
I0
sg86
g87
sg88
g98
sS'RecMemTask.thisTrialN'
p846
I76
sg40
g41
sg43
I1
sg154
VStimuli/WF034_FO.bmp
p847
sg46
I1
sg32
g33
sg19
I2000
sg60
g61
sg20
I205875
sg66
g11
sS'RecMemTask.thisRepN'
p848
I0
sg68
I01
sg71
g72
sg62
g63
sg18
I207867
sg54
I1
sg24
I207868
sg25
I500
sg26
I208368
sg84
g85
sg74
I0
sg157
g170
sg81
g63
sg99
I1
sa(dp849
g17
I208374
sg143
g180
sg16
g170
sg44
g45
sg42
I1
sS'RecMemTask.thisN'
p850
I77
sg64
g65
sg47
g48
sg49
g50
sg51
I0
sg23
I210361
sg52
g53
sg55
g56
sg57
g58
sS'RecMemTask.thisIndex'
p851
g89
(g125
S'M\x00\x00\x00\x00\x00\x00\x00'
p852
tp853
Rp854
sg151
g152
sg14
g65
sg59
I0
sg67
I160
sg21
I210361
sg69
g70
sg73
I0
sg22
I0
sg75
g76
sg77
g78
sg28
I0
sg79
g80
sg27
I210861
sg82
I0
sg83
I00
sg15
I0
sg86
g87
sg88
g98
sS'RecMemTask.thisTrialN'
p855
I77
sg40
g41
sg43
I1
sg154
VStimuli/PL_041_LEXINGTON17.bmp
p856
sg46
I1
sg32
g33
sg19
I2000
sg60
g61
sg20
I208374
sg66
g11
sS'RecMemTask.thisRepN'
p857
I0
sg68
I01
sg71
g72
sg62
g63
sg18
I210361
sg54
I1
sg24
I210361
sg25
I500
sg26
I210861
sg84
g85
sg74
I0
sg157
g170
sg81
g63
sg99
I1
sa(dp858
g17
I210870
sg143
g209
sg16
g170
sg44
g45
sg42
I1
sS'RecMemTask.thisN'
p859
I78
sg64
g65
sg47
g48
sg49
g50
sg51
I0
sg23
I212869
sg52
g53
sg55
g56
sg57
g58
sS'RecMemTask.thisIndex'
p860
g89
(g125
S'N\x00\x00\x00\x00\x00\x00\x00'
p861
tp862
Rp863
sg151
g152
sg14
g65
sg59
I0
sg67
I160
sg21
I212869
sg69
g70
sg73
I0
sg22
I0
sg75
g76
sg77
g78
sg28
I0
sg79
g80
sg27
I213361
sg82
I0
sg83
I00
sg15
I0
sg86
g87
sg88
g98
sS'RecMemTask.thisTrialN'
p864
I78
sg40
g41
sg43
I1
sg154
VStimuli/BF10_FO.bmp
p865
sg46
I1
sg32
g33
sg19
I2000
sg60
g61
sg20
I210870
sg66
g11
sS'RecMemTask.thisRepN'
p866
I0
sg68
I01
sg71
g72
sg62
g63
sg18
I212869
sg54
I1
sg24
I212869
sg25
I500
sg26
I213361
sg84
g85
sg74
I0
sg157
g170
sg81
g63
sg99
I1
sa(dp867
g17
I213371
sg143
g238
sg16
g170
sg44
g45
sg42
I1
sS'RecMemTask.thisN'
p868
I79
sg64
g65
sg47
g48
sg49
g50
sg51
I0
sg23
I215363
sg52
g53
sg55
g56
sg57
g58
sS'RecMemTask.thisIndex'
p869
g89
(g125
S'O\x00\x00\x00\x00\x00\x00\x00'
p870
tp871
Rp872
sg151
g152
sg14
g65
sg59
I0
sg67
I160
sg21
I215363
sg69
g70
sg73
I0
sg22
I0
sg75
g76
sg77
g78
sg28
I0
sg79
g80
sg27
I215868
sg82
I0
sg83
I00
sg15
I0
sg86
g87
sg88
g98
sS'RecMemTask.thisTrialN'
p873
I79
sg40
g41
sg43
I1
sg154
VStimuli/19F_HO.bmp
p874
sg46
I1
sg32
g33
sg19
I2000
sg60
g61
sg20
I213371
sg66
g11
sS'RecMemTask.thisRepN'
p875
I0
sg68
I01
sg71
g72
sg62
g63
sg18
I215363
sg54
I1
sg24
I215363
sg25
I500
sg26
I215868
sg84
g85
sg74
I0
sg157
g170
sg81
g63
sg99
I1
sa(dp876
g17
I215874
sg143
g169
sg16
g170
sg44
g45
sg42
I1
sS'RecMemTask.thisN'
p877
I80
sg64
g65
sg47
g48
sg49
g50
sg51
I0
sg23
I217863
sg52
g53
sg55
g56
sg57
g58
sS'RecMemTask.thisIndex'
p878
g89
(g125
S'P\x00\x00\x00\x00\x00\x00\x00'
p879
tp880
Rp881
sg151
g152
sg14
g65
sg59
I0
sg67
I160
sg21
I217863
sg69
g70
sg73
I0
sg22
I0
sg75
g76
sg77
g78
sg28
I0
sg79
g80
sg27
I218369
sg82
I0
sg83
I00
sg15
I0
sg86
g87
sg88
g98
sS'RecMemTask.thisTrialN'
p882
I80
sg40
g41
sg43
I1
sg154
VStimuli/WF02_NC.bmp
p883
sg46
I1
sg32
g33
sg19
I2000
sg60
g61
sg20
I215874
sg66
g11
sS'RecMemTask.thisRepN'
p884
I0
sg68
I01
sg71
g72
sg62
g63
sg18
I217863
sg54
I1
sg24
I217863
sg25
I500
sg26
I218369
sg84
g85
sg74
I0
sg157
g170
sg81
g63
sg99
I1
sa(dp885
g17
I218376
sg143
g180
sg16
g170
sg44
g45
sg42
I1
sS'RecMemTask.thisN'
p886
I81
sg64
g65
sg47
g48
sg49
g50
sg51
I0
sg23
I220369
sg52
g53
sg55
g56
sg57
g58
sS'RecMemTask.thisIndex'
p887
g89
(g125
S'Q\x00\x00\x00\x00\x00\x00\x00'
p888
tp889
Rp890
sg151
g152
sg14
g65
sg59
I0
sg67
I160
sg21
I220369
sg69
g70
sg73
I0
sg22
I0
sg75
g76
sg77
g78
sg28
I0
sg79
g80
sg27
I220862
sg82
I0
sg83
I00
sg15
I0
sg86
g87
sg88
g98
sS'RecMemTask.thisTrialN'
p891
I81
sg40
g41
sg43
I1
sg154
VStimuli/PL_043_LEXINGTON19.bmp
p892
sg46
I1
sg32
g33
sg19
I2000
sg60
g61
sg20
I218376
sg66
g11
sS'RecMemTask.thisRepN'
p893
I0
sg68
I01
sg71
g72
sg62
g63
sg18
I220369
sg54
I1
sg24
I220369
sg25
I500
sg26
I220862
sg84
g85
sg74
I0
sg157
g170
sg81
g63
sg99
I1
sa(dp894
g17
I220872
sg143
g180
sg16
g170
sg44
g45
sg42
I1
sS'RecMemTask.thisN'
p895
I82
sg64
g65
sg47
g48
sg49
g50
sg51
I0
sg23
I222863
sg52
g53
sg55
g56
sg57
g58
sS'RecMemTask.thisIndex'
p896
g89
(g125
S'R\x00\x00\x00\x00\x00\x00\x00'
p897
tp898
Rp899
sg151
g152
sg14
g65
sg59
I0
sg67
I160
sg21
I222863
sg69
g70
sg73
I0
sg22
I0
sg75
g76
sg77
g78
sg28
I0
sg79
g80
sg27
I223363
sg82
I0
sg83
I00
sg15
I0
sg86
g87
sg88
g98
sS'RecMemTask.thisTrialN'
p900
I82
sg40
g41
sg43
I1
sg154
VStimuli/PL_047_SCENE04.bmp
p901
sg46
I1
sg32
g33
sg19
I2000
sg60
g61
sg20
I220873
sg66
g11
sS'RecMemTask.thisRepN'
p902
I0
sg68
I01
sg71
g72
sg62
g63
sg18
I222863
sg54
I1
sg24
I222863
sg25
I500
sg26
I223363
sg84
g85
sg74
I0
sg157
g170
sg81
g63
sg99
I1
sa(dp903
g17
I223370
sg143
g144
sg16
g145
sg44
g45
sg42
I1
sS'RecMemTask.thisN'
p904
I83
sg64
g65
sg47
g48
sg49
g50
sg51
I0
sg23
I225363
sg52
g53
sg55
g56
sg57
g58
sS'RecMemTask.thisIndex'
p905
g89
(g125
S'S\x00\x00\x00\x00\x00\x00\x00'
p906
tp907
Rp908
sg151
g152
sg14
g65
sg59
I0
sg67
I160
sg21
I225364
sg69
g70
sg73
I0
sg22
I0
sg75
g76
sg77
g78
sg28
I0
sg79
g80
sg27
I225864
sg82
I0
sg83
I00
sg15
I0
sg86
g87
sg88
g98
sS'RecMemTask.thisTrialN'
p909
I83
sg40
g41
sg43
I1
sg154
VStimuli/AF201_NC.bmp
p910
sg46
I1
sg32
g33
sg19
I2000
sg60
g61
sg20
I223370
sg66
g11
sS'RecMemTask.thisRepN'
p911
I0
sg68
I01
sg71
g72
sg62
g63
sg18
I225364
sg54
I1
sg24
I225364
sg25
I500
sg26
I225864
sg84
g85
sg74
I0
sg157
g145
sg81
g63
sg99
I1
sa(dp912
g17
I225870
sg143
g144
sg16
g145
sg44
g45
sg42
I1
sS'RecMemTask.thisN'
p913
I84
sg64
g65
sg47
g48
sg49
g50
sg51
I0
sg23
I227863
sg52
g53
sg55
g56
sg57
g58
sS'RecMemTask.thisIndex'
p914
g89
(g125
S'T\x00\x00\x00\x00\x00\x00\x00'
p915
tp916
Rp917
sg151
g152
sg14
g65
sg59
I0
sg67
I160
sg21
I227863
sg69
g70
sg73
I0
sg22
I0
sg75
g76
sg77
g78
sg28
I0
sg79
g80
sg27
I228363
sg82
I0
sg83
I00
sg15
I0
sg86
g87
sg88
g98
sS'RecMemTask.thisTrialN'
p918
I84
sg40
g41
sg43
I1
sg154
VStimuli/LF207_NC.bmp
p919
sg46
I1
sg32
g33
sg19
I2000
sg60
g61
sg20
I225871
sg66
g11
sS'RecMemTask.thisRepN'
p920
I0
sg68
I01
sg71
g72
sg62
g63
sg18
I227863
sg54
I1
sg24
I227863
sg25
I500
sg26
I228362
sg84
g85
sg74
I0
sg157
g145
sg81
g63
sg99
I1
sa(dp921
g17
I228371
sg143
g159
sg16
g145
sg44
g45
sg42
I1
sS'RecMemTask.thisN'
p922
I85
sg64
g65
sg47
g48
sg49
g50
sg51
I0
sg23
I230364
sg52
g53
sg55
g56
sg57
g58
sS'RecMemTask.thisIndex'
p923
g89
(g125
S'U\x00\x00\x00\x00\x00\x00\x00'
p924
tp925
Rp926
sg151
g152
sg14
g65
sg59
I0
sg67
I160
sg21
I230364
sg69
g70
sg73
I0
sg22
I0
sg75
g76
sg77
g78
sg28
I0
sg79
g80
sg27
I230871
sg82
I0
sg83
I00
sg15
I0
sg86
g87
sg88
g98
sS'RecMemTask.thisTrialN'
p927
I85
sg40
g41
sg43
I1
sg154
VStimuli/PL_096_O69.1.bmp
p928
sg46
I1
sg32
g33
sg19
I2000
sg60
g61
sg20
I228372
sg66
g11
sS'RecMemTask.thisRepN'
p929
I0
sg68
I01
sg71
g72
sg62
g63
sg18
I230364
sg54
I1
sg24
I230364
sg25
I500
sg26
I230871
sg84
g85
sg74
I0
sg157
g145
sg81
g63
sg99
I1
sa(dp930
g17
I230879
sg143
g209
sg16
g170
sg44
g45
sg42
I1
sS'RecMemTask.thisN'
p931
I86
sg64
g65
sg47
g48
sg49
g50
sg51
I0
sg23
I232863
sg52
g53
sg55
g56
sg57
g58
sS'RecMemTask.thisIndex'
p932
g89
(g125
S'V\x00\x00\x00\x00\x00\x00\x00'
p933
tp934
Rp935
sg151
g152
sg14
g65
sg59
I0
sg67
I160
sg21
I232863
sg69
g70
sg73
I0
sg22
I0
sg75
g76
sg77
g78
sg28
I0
sg79
g80
sg27
I233371
sg82
I0
sg83
I00
sg15
I0
sg86
g87
sg88
g98
sS'RecMemTask.thisTrialN'
p936
I86
sg40
g41
sg43
I1
sg154
VStimuli/3F_FO.bmp
p937
sg46
I1
sg32
g33
sg19
I2000
sg60
g61
sg20
I230879
sg66
g11
sS'RecMemTask.thisRepN'
p938
I0
sg68
I01
sg71
g72
sg62
g63
sg18
I232863
sg54
I1
sg24
I232863
sg25
I500
sg26
I233371
sg84
g85
sg74
I0
sg157
g170
sg81
g63
sg99
I1
sa(dp939
g17
I233378
sg143
g190
sg16
g145
sg44
g45
sg42
I1
sS'RecMemTask.thisN'
p940
I87
sg64
g65
sg47
g48
sg49
g50
sg51
I0
sg23
I235365
sg52
g53
sg55
g56
sg57
g58
sS'RecMemTask.thisIndex'
p941
g89
(g125
S'W\x00\x00\x00\x00\x00\x00\x00'
p942
tp943
Rp944
sg151
g152
sg14
g65
sg59
I0
sg67
I160
sg21
I235365
sg69
g70
sg73
I0
sg22
I0
sg75
g76
sg77
g78
sg28
I0
sg79
g80
sg27
I235864
sg82
I0
sg83
I00
sg15
I0
sg86
g87
sg88
g98
sS'RecMemTask.thisTrialN'
p945
I87
sg40
g41
sg43
I1
sg154
VStimuli/AM02_HO.bmp
p946
sg46
I1
sg32
g33
sg19
I2000
sg60
g61
sg20
I233378
sg66
g11
sS'RecMemTask.thisRepN'
p947
I0
sg68
I01
sg71
g72
sg62
g63
sg18
I235365
sg54
I1
sg24
I235365
sg25
I500
sg26
I235864
sg84
g85
sg74
I0
sg157
g145
sg81
g63
sg99
I1
sa(dp948
g17
I235874
sg143
g219
sg16
g145
sg44
g45
sg42
I1
sS'RecMemTask.thisN'
p949
I88
sg64
g65
sg47
g48
sg49
g50
sg51
I0
sg23
I237860
sg52
g53
sg55
g56
sg57
g58
sS'RecMemTask.thisIndex'
p950
g89
(g125
S'X\x00\x00\x00\x00\x00\x00\x00'
p951
tp952
Rp953
sg151
g152
sg14
g65
sg59
I0
sg67
I160
sg21
I237860
sg69
g70
sg73
I0
sg22
I0
sg75
g76
sg77
g78
sg28
I0
sg79
g80
sg27
I238363
sg82
I0
sg83
I00
sg15
I0
sg86
g87
sg88
g98
sS'RecMemTask.thisTrialN'
p954
I88
sg40
g41
sg43
I1
sg154
VStimuli/BM028_FO.bmp
p955
sg46
I1
sg32
g33
sg19
I2000
sg60
g61
sg20
I235875
sg66
g11
sS'RecMemTask.thisRepN'
p956
I0
sg68
I01
sg71
g72
sg62
g63
sg18
I237860
sg54
I1
sg24
I237860
sg25
I500
sg26
I238363
sg84
g85
sg74
I0
sg157
g145
sg81
g63
sg99
I1
sa(dp957
g17
I238370
sg143
g238
sg16
g170
sg44
g45
sg42
I1
sS'RecMemTask.thisN'
p958
I89
sg64
g65
sg47
g48
sg49
g50
sg51
I0
sg23
I240365
sg52
g53
sg55
g56
sg57
g58
sS'RecMemTask.thisIndex'
p959
g89
(g125
S'Y\x00\x00\x00\x00\x00\x00\x00'
p960
tp961
Rp962
sg151
g152
sg14
g65
sg59
I0
sg67
I160
sg21
I240365
sg69
g70
sg73
I0
sg22
I0
sg75
g76
sg77
g78
sg28
I0
sg79
g80
sg27
I240872
sg82
I0
sg83
I00
sg15
I0
sg86
g87
sg88
g98
sS'RecMemTask.thisTrialN'
p963
I89
sg40
g41
sg43
I1
sg154
VStimuli/29M_HO.bmp
p964
sg46
I1
sg32
g33
sg19
I2000
sg60
g61
sg20
I238370
sg66
g11
sS'RecMemTask.thisRepN'
p965
I0
sg68
I01
sg71
g72
sg62
g63
sg18
I240365
sg54
I1
sg24
I240365
sg25
I500
sg26
I240872
sg84
g85
sg74
I0
sg157
g170
sg81
g63
sg99
I1
sa(dp966
g17
I240878
sg143
g238
sg16
g170
sg44
g45
sg42
I1
sS'RecMemTask.thisN'
p967
I90
sg64
g65
sg47
g48
sg49
g50
sg51
I0
sg23
I242869
sg52
g53
sg55
g56
sg57
g58
sS'RecMemTask.thisIndex'
p968
g89
(g125
S'Z\x00\x00\x00\x00\x00\x00\x00'
p969
tp970
Rp971
sg151
g152
sg14
g65
sg59
I0
sg67
I160
sg21
I242869
sg69
g70
sg73
I0
sg22
I0
sg75
g76
sg77
g78
sg28
I0
sg79
g80
sg27
I243365
sg82
I0
sg83
I00
sg15
I0
sg86
g87
sg88
g98
sS'RecMemTask.thisTrialN'
p972
I90
sg40
g41
sg43
I1
sg154
VStimuli/13F_HO.bmp
p973
sg46
I1
sg32
g33
sg19
I2000
sg60
g61
sg20
I240878
sg66
g11
sS'RecMemTask.thisRepN'
p974
I0
sg68
I01
sg71
g72
sg62
g63
sg18
I242869
sg54
I1
sg24
I242869
sg25
I500
sg26
I243365
sg84
g85
sg74
I0
sg157
g170
sg81
g63
sg99
I1
sa(dp975
g17
I243373
sg143
g219
sg16
g145
sg44
g45
sg42
I1
sS'RecMemTask.thisN'
p976
I91
sg64
g65
sg47
g48
sg49
g50
sg51
I0
sg23
I245365
sg52
g53
sg55
g56
sg57
g58
sS'RecMemTask.thisIndex'
p977
g89
(g125
S'[\x00\x00\x00\x00\x00\x00\x00'
p978
tp979
Rp980
sg151
g152
sg14
g65
sg59
I0
sg67
I160
sg21
I245365
sg69
g70
sg73
I0
sg22
I0
sg75
g76
sg77
g78
sg28
I0
sg79
g80
sg27
I245865
sg82
I0
sg83
I00
sg15
I0
sg86
g87
sg88
g98
sS'RecMemTask.thisTrialN'
p981
I91
sg40
g41
sg43
I1
sg154
VStimuli/15F_FO.bmp
p982
sg46
I1
sg32
g33
sg19
I2000
sg60
g61
sg20
I243373
sg66
g11
sS'RecMemTask.thisRepN'
p983
I0
sg68
I01
sg71
g72
sg62
g63
sg18
I245365
sg54
I1
sg24
I245365
sg25
I500
sg26
I245865
sg84
g85
sg74
I0
sg157
g145
sg81
g63
sg99
I1
sa(dp984
g17
I245875
sg143
g190
sg16
g145
sg44
g45
sg42
I1
sS'RecMemTask.thisN'
p985
I92
sg64
g65
sg47
g48
sg49
g50
sg51
I0
sg23
I247867
sg52
g53
sg55
g56
sg57
g58
sS'RecMemTask.thisIndex'
p986
g89
(g125
S'\\\x00\x00\x00\x00\x00\x00\x00'
p987
tp988
Rp989
sg151
g152
sg14
g65
sg59
I0
sg67
I160
sg21
I247867
sg69
g70
sg73
I0
sg22
I0
sg75
g76
sg77
g78
sg28
I0
sg79
g80
sg27
I248365
sg82
I0
sg83
I00
sg15
I0
sg86
g87
sg88
g98
sS'RecMemTask.thisTrialN'
p990
I92
sg40
g41
sg43
I1
sg154
VStimuli/BF018_HO.bmp
p991
sg46
I1
sg32
g33
sg19
I2000
sg60
g61
sg20
I245876
sg66
g11
sS'RecMemTask.thisRepN'
p992
I0
sg68
I01
sg71
g72
sg62
g63
sg18
I247867
sg54
I1
sg24
I247867
sg25
I500
sg26
I248365
sg84
g85
sg74
I0
sg157
g145
sg81
g63
sg99
I1
sa(dp993
g17
I248373
sg143
g159
sg16
g145
sg44
g45
sg42
I1
sS'RecMemTask.thisN'
p994
I93
sg64
g65
sg47
g48
sg49
g50
sg51
I0
sg23
I250366
sg52
g53
sg55
g56
sg57
g58
sS'RecMemTask.thisIndex'
p995
g89
(g125
S']\x00\x00\x00\x00\x00\x00\x00'
p996
tp997
Rp998
sg151
g152
sg14
g65
sg59
I0
sg67
I160
sg21
I250366
sg69
g70
sg73
I0
sg22
I0
sg75
g76
sg77
g78
sg28
I0
sg79
g80
sg27
I250869
sg82
I0
sg83
I00
sg15
I0
sg86
g87
sg88
g98
sS'RecMemTask.thisTrialN'
p999
I93
sg40
g41
sg43
I1
sg154
VStimuli/PL_090_O47.1.bmp
p1000
sg46
I1
sg32
g33
sg19
I2000
sg60
g61
sg20
I248373
sg66
g11
sS'RecMemTask.thisRepN'
p1001
I0
sg68
I01
sg71
g72
sg62
g63
sg18
I250366
sg54
I1
sg24
I250366
sg25
I500
sg26
I250869
sg84
g85
sg74
I0
sg157
g145
sg81
g63
sg99
I1
sa(dp1002
g17
I250877
sg143
g209
sg16
g170
sg44
g45
sg42
I1
sS'RecMemTask.thisN'
p1003
I94
sg64
g65
sg47
g48
sg49
g50
sg51
I0
sg23
I252866
sg52
g53
sg55
g56
sg57
g58
sS'RecMemTask.thisIndex'
p1004
g89
(g125
S'^\x00\x00\x00\x00\x00\x00\x00'
p1005
tp1006
Rp1007
sg151
g152
sg14
g65
sg59
I0
sg67
I160
sg21
I252866
sg69
g70
sg73
I0
sg22
I0
sg75
g76
sg77
g78
sg28
I0
sg79
g80
sg27
I253365
sg82
I0
sg83
I00
sg15
I0
sg86
g87
sg88
g98
sS'RecMemTask.thisTrialN'
p1008
I94
sg40
g41
sg43
I1
sg154
VStimuli/BM023_FO.bmp
p1009
sg46
I1
sg32
g33
sg19
I2000
sg60
g61
sg20
I250877
sg66
g11
sS'RecMemTask.thisRepN'
p1010
I0
sg68
I01
sg71
g72
sg62
g63
sg18
I252866
sg54
I1
sg24
I252866
sg25
I500
sg26
I253365
sg84
g85
sg74
I0
sg157
g170
sg81
g63
sg99
I1
sa(dp1011
g17
I253374
sg143
g169
sg16
g170
sg44
g45
sg42
I1
sS'RecMemTask.thisN'
p1012
I95
sg64
g65
sg47
g48
sg49
g50
sg51
I0
sg23
I255367
sg52
g53
sg55
g56
sg57
g58
sS'RecMemTask.thisIndex'
p1013
g89
(g125
S'_\x00\x00\x00\x00\x00\x00\x00'
p1014
tp1015
Rp1016
sg151
g152
sg14
g65
sg59
I0
sg67
I160
sg21
I255367
sg69
g70
sg73
I0
sg22
I0
sg75
g76
sg77
g78
sg28
I0
sg79
g80
sg27
I255866
sg82
I0
sg83
I00
sg15
I0
sg86
g87
sg88
g98
sS'RecMemTask.thisTrialN'
p1017
I95
sg40
g41
sg43
I1
sg154
VStimuli/AM210_NC.bmp
p1018
sg46
I1
sg32
g33
sg19
I2000
sg60
g61
sg20
I253374
sg66
g11
sS'RecMemTask.thisRepN'
p1019
I0
sg68
I01
sg71
g72
sg62
g63
sg18
I255367
sg54
I1
sg24
I255367
sg25
I500
sg26
I255866
sg84
g85
sg74
I0
sg157
g170
sg81
g63
sg99
I1
sasS'loops'
p1020
(lp1021
g0
(cpsychopy.data.trial
TrialHandler
p1022
g2
Ntp1023
Rp1024
(dp1025
S'origin'
p1026
NsS'thisTrial'
p1027
(lp1028
sS'_exp'
p1029
I4596072144
sg10
S'RecMemPractice'
p1030
sg6
I-1
sS'thisRepN'
p1031
I1
sg29
I01
sg30
g31
sS'data'
p1032
g0
(cpsychopy.data.base
DataHandler
p1033
c__builtin__
dict
p1034
(dp1035
g17
cnumpy.ma.core
_mareconstruct
p1036
(cnumpy.ma.core
MaskedArray
p1037
cnumpy
ndarray
p1038
(I0
tp1039
S'b'
p1040
tp1041
Rp1042
(I1
(I2
I1
tp1043
g90
(S'f4'
p1044
I0
I1
tp1045
Rp1046
(I3
S'<'
p1047
NNNI-1
I-1
I0
tp1048
bI00
S'\x00\x00<E\x00\x88\xd9E'
p1049
S'\x00\x00'
p1050
Ntp1051
bsg16
cnumpy.core.multiarray
_reconstruct
p1052
(g1038
(I0
tp1053
g1040
tp1054
Rp1055
(I1
(I2
I1
tp1056
g90
(S'O8'
p1057
I0
I1
tp1058
Rp1059
(I3
S'|'
p1060
NNNI-1
I-1
I63
tp1061
bI00
(lp1062
g116
ag133
atp1063
bsS'ran'
p1064
g1036
(g1037
g1038
g1039
g1040
tp1065
Rp1066
(I1
(I2
I1
tp1067
g1046
I00
S'\x00\x00\x80?\x00\x00\x80?'
p1068
S'\x00\x00'
p1069
Ntp1070
bsg23
g1036
(g1037
g1038
g1039
g1040
tp1071
Rp1072
(I1
(I2
I1
tp1073
g1046
I00
S'\x00\xc8\x9aE\x00\xe8\x0bF'
p1074
S'\x00\x00'
p1075
Ntp1076
bsg19
g1036
(g1037
g1038
g1039
g1040
tp1077
Rp1078
(I1
(I2
I1
tp1079
g1046
I00
S'\x00\x00\xfaD\x00\x00\xfaD'
p1080
S'\x00\x00'
p1081
Ntp1082
bsg20
g1036
(g1037
g1038
g1039
g1040
tp1083
Rp1084
(I1
(I2
I1
tp1085
g1046
I00
S'\x00\x00<E\x00\x90\xd9E'
p1086
S'\x00\x00'
p1087
Ntp1088
bsg14
g1052
(g1038
(I0
tp1089
g1040
tp1090
Rp1091
(I1
(I2
I1
tp1092
g1059
I00
(lp1093
g65
ag65
atp1094
bsg21
g1036
(g1037
g1038
g1039
g1040
tp1095
Rp1096
(I1
(I2
I1
tp1097
g1046
I00
S'\x00\xc8\x9aE\x00\xe8\x0bF'
p1098
S'\x00\x00'
p1099
Ntp1100
bsg22
g1036
(g1037
g1038
g1039
g1040
tp1101
Rp1102
(I1
(I2
I1
tp1103
g1046
I00
S'\x00\x00\x00\x00\x00\x00\x00\x00'
p1104
S'\x00\x00'
p1105
Ntp1106
bsg18
g1036
(g1037
g1038
g1039
g1040
tp1107
Rp1108
(I1
(I2
I1
tp1109
g1046
I00
S'\x00\xc8\x9aE\x00\xe8\x0bF'
p1110
S'\x00\x00'
p1111
Ntp1112
bsg28
g1036
(g1037
g1038
g1039
g1040
tp1113
Rp1114
(I1
(I2
I1
tp1115
g1046
I00
S'\x00\x00\x00\x00\x00\x00\x00\x00'
p1116
S'\x00\x00'
p1117
Ntp1118
bsg24
g1036
(g1037
g1038
g1039
g1040
tp1119
Rp1120
(I1
(I2
I1
tp1121
g1046
I00
S'\x00\xc8\x9aE\x00\xe8\x0bF'
p1122
S'\x00\x00'
p1123
Ntp1124
bsg25
g1036
(g1037
g1038
g1039
g1040
tp1125
Rp1126
(I1
(I2
I1
tp1127
g1046
I00
S'\x00\x00\xfaC\x00\x00\xfaC'
p1128
S'\x00\x00'
p1129
Ntp1130
bsg26
g1036
(g1037
g1038
g1039
g1040
tp1131
Rp1132
(I1
(I2
I1
tp1133
g1046
I00
S'\x00h\xaaE\x00\xb4\x13F'
p1134
S'\x00\x00'
p1135
Ntp1136
bsg15
g1036
(g1037
g1038
g1039
g1040
tp1137
Rp1138
(I1
(I2
I1
tp1139
g1046
I00
S'\x00\x00\x00\x00\x00\x00\x00\x00'
p1140
S'\x00\x00'
p1141
Ntp1142
bsS'order'
p1143
g1036
(g1037
g1038
g1039
g1040
tp1144
Rp1145
(I1
(I2
I1
tp1146
g1046
I00
S'\x00\x00\x00\x00\x00\x00\x80?'
p1147
S'\x00\x00'
p1148
Ntp1149
bsg27
g1036
(g1037
g1038
g1039
g1040
tp1150
Rp1151
(I1
(I2
I1
tp1152
g1046
I00
S'\x00h\xaaE\x00\xb4\x13F'
p1153
S'\x00\x00'
p1154
Ntp1155
bstp1156
Rp1157
(dp1158
S'isNumeric'
p1159
(dp1160
g17
I01
sg21
I01
sg16
I00
sg1064
I01
sg22
I01
sg28
I01
sg23
I01
sg18
I01
sg24
I01
sg25
I01
sg19
I01
sg26
I01
sg20
I01
sg15
I01
sg14
I00
sg1143
I01
sg27
I01
ssS'trials'
p1161
g1024
sS'dataTypes'
p1162
(lp1163
g1064
ag1143
ag14
ag15
ag16
ag17
ag18
ag19
ag20
ag21
ag22
ag23
ag24
ag25
ag26
ag27
ag28
asS'dataShape'
p1164
(lp1165
I2
aI1
asbsS'method'
p1166
S'sequential'
p1167
sS'sequenceIndices'
p1168
g1052
(g1038
(I0
tp1169
g1040
tp1170
Rp1171
(I1
(I2
I1
tp1172
g125
I00
S'\x00\x00\x00\x00\x00\x00\x00\x00\x01\x00\x00\x00\x00\x00\x00\x00'
p1173
tp1174
bsS'finished'
p1175
I01
sS'nReps'
p1176
I1
sS'nRemaining'
p1177
I-1
sS'trialList'
p1178
(lp1179
g0
(cpsychopy.data.trial
TrialType
p1180
g1034
(dp1181
g108
g120
sg109
g115
sg110
g118
sg111
g116
stp1182
Rp1183
ag0
(g1180
g1034
(dp1184
g108
g136
sg109
g132
sg110
g118
sg111
g133
stp1185
Rp1186
asS'seed'
p1187
NsS'thisIndex'
p1188
g141
sS'thisN'
p1189
I2
sS'thisTrialN'
p1190
I0
sS'nTotal'
p1191
I2
sbag0
(g1022
g2
Ntp1192
Rp1193
(dp1194
g1026
Nsg1027
(lp1195
sg1029
I4596072144
sg10
S'RecMemTask'
p1196
sg6
I-1
sg1031
I1
sg29
I01
sg30
g31
sg1032
g0
(g1033
g1034
(dp1197
g17
g1036
(g1037
g1038
g1039
g1040
tp1198
Rp1199
(I1
(I96
I1
tp1200
g1046
I00
S'\x00\xe0wF\x00\x96\x8fF\x00\x08\xa3F\x00\xaa\xb6F\x00\x14\xcaF\x00\xa2\xddF\x00>\xf1F\x00\\\x02G\x00 \x0cG\x00\xe6\x15G\x00\xb6\x1fG\x00j)G\x00:3G\x00\xff<G\x00\xc5FG\x00\x88PG\x00MZG\x00\x0edG\x00\xd5mG\x00\x88wG\x00\xa6\x80G\x80\x88\x85G\x80j\x8aG\x00L\x8fG\x80/\x94G\x00\x11\x99G\x00\xf7\x9dG\x00\xd8\xa2G\x00\xbb\xa7G\x00\x99\xacG\x80\x7f\xb1G\x80]\xb6G\x80@\xbbG\x00&\xc0G\x00\x07\xc5G\x80\xe9\xc9G\x00\xc8\xceG\x00\xab\xd3G\x80\x8e\xd8G\x00p\xddG\x80Q\xe2G\x803\xe7G\x80\x14\xecG\x00\xf7\xf0G\x00\xda\xf5G\x00\xbc\xfaG\x00\x99\xffG\x80@\x02H\xc0\xb1\x04H\xc0#\x07H@\x93\tH\x80\x05\x0cH@u\x0eH@\xe6\x10H\x00X\x13H\x00\xc9\x15H\x00:\x18H\x80\xa8\x1aH\x00\x1c\x1dH\x00\x8d\x1fH\x80\xfe!H@o$H\x80\xe0&H\x00P)H\x80\xbf+H\x003.H\x80\xa00H\xc0\x153H\xc0\x835H\xc0\xf77H\x00f:H@\xda<H\x00H?H\x00\xb8AH\xc0*DH@\x9bFH\x80\x0cIH\x80}KH\x80\xedMH\xc0^PH\x80\xd0RH\x00BUH\x00\xb2WH\x80"ZH\x80\x93\\H\xc0\x04_H\xc0waH\x80\xe8cH\x80XfH\x80\xc8hH\x80;kH@\xabmH\xc0\x1cpH@\x8drH@\xfftH\x80owH'
p1201
S'\x00\x00\x00\x00\x00\x00\x00\x00\x00\x00\x00\x00\x00\x00\x00\x00\x00\x00\x00\x00\x00\x00\x00\x00\x00\x00\x00\x00\x00\x00\x00\x00\x00\x00\x00\x00\x00\x00\x00\x00\x00\x00\x00\x00\x00\x00\x00\x00\x00\x00\x00\x00\x00\x00\x00\x00\x00\x00\x00\x00\x00\x00\x00\x00\x00\x00\x00\x00\x00\x00\x00\x00\x00\x00\x00\x00\x00\x00\x00\x00\x00\x00\x00\x00\x00\x00\x00\x00\x00\x00\x00\x00\x00\x00\x00\x00'
p1202
Ntp1203
bsg16
g1052
(g1038
(I0
tp1204
g1040
tp1205
Rp1206
(I1
(I96
I1
tp1207
g1059
I00
(lp1208
g145
ag145
ag170
ag170
ag145
ag170
ag170
ag145
ag170
ag170
ag170
ag145
ag170
ag145
ag145
ag145
ag145
ag145
ag170
ag145
ag145
ag170
ag170
ag170
ag145
ag170
ag145
ag145
ag170
ag145
ag170
ag170
ag170
ag170
ag145
ag145
ag145
ag170
ag170
ag145
ag145
ag170
ag145
ag170
ag170
ag145
ag170
ag145
ag170
ag145
ag170
ag145
ag170
ag145
ag170
ag145
ag170
ag145
ag145
ag145
ag170
ag170
ag170
ag145
ag145
ag145
ag170
ag170
ag145
ag170
ag145
ag170
ag145
ag145
ag145
ag145
ag170
ag170
ag170
ag170
ag170
ag170
ag170
ag145
ag145
ag145
ag170
ag145
ag145
ag170
ag170
ag145
ag145
ag145
ag170
ag170
atp1209
bsg1064
g1036
(g1037
g1038
g1039
g1040
tp1210
Rp1211
(I1
(I96
I1
tp1212
g1046
I00
S'\x00\x00\x80?\x00\x00\x80?\x00\x00\x80?\x00\x00\x80?\x00\x00\x80?\x00\x00\x80?\x00\x00\x80?\x00\x00\x80?\x00\x00\x80?\x00\x00\x80?\x00\x00\x80?\x00\x00\x80?\x00\x00\x80?\x00\x00\x80?\x00\x00\x80?\x00\x00\x80?\x00\x00\x80?\x00\x00\x80?\x00\x00\x80?\x00\x00\x80?\x00\x00\x80?\x00\x00\x80?\x00\x00\x80?\x00\x00\x80?\x00\x00\x80?\x00\x00\x80?\x00\x00\x80?\x00\x00\x80?\x00\x00\x80?\x00\x00\x80?\x00\x00\x80?\x00\x00\x80?\x00\x00\x80?\x00\x00\x80?\x00\x00\x80?\x00\x00\x80?\x00\x00\x80?\x00\x00\x80?\x00\x00\x80?\x00\x00\x80?\x00\x00\x80?\x00\x00\x80?\x00\x00\x80?\x00\x00\x80?\x00\x00\x80?\x00\x00\x80?\x00\x00\x80?\x00\x00\x80?\x00\x00\x80?\x00\x00\x80?\x00\x00\x80?\x00\x00\x80?\x00\x00\x80?\x00\x00\x80?\x00\x00\x80?\x00\x00\x80?\x00\x00\x80?\x00\x00\x80?\x00\x00\x80?\x00\x00\x80?\x00\x00\x80?\x00\x00\x80?\x00\x00\x80?\x00\x00\x80?\x00\x00\x80?\x00\x00\x80?\x00\x00\x80?\x00\x00\x80?\x00\x00\x80?\x00\x00\x80?\x00\x00\x80?\x00\x00\x80?\x00\x00\x80?\x00\x00\x80?\x00\x00\x80?\x00\x00\x80?\x00\x00\x80?\x00\x00\x80?\x00\x00\x80?\x00\x00\x80?\x00\x00\x80?\x00\x00\x80?\x00\x00\x80?\x00\x00\x80?\x00\x00\x80?\x00\x00\x80?\x00\x00\x80?\x00\x00\x80?\x00\x00\x80?\x00\x00\x80?\x00\x00\x80?\x00\x00\x80?\x00\x00\x80?\x00\x00\x80?\x00\x00\x80?\x00\x00\x80?'
p1213
S'\x00\x00\x00\x00\x00\x00\x00\x00\x00\x00\x00\x00\x00\x00\x00\x00\x00\x00\x00\x00\x00\x00\x00\x00\x00\x00\x00\x00\x00\x00\x00\x00\x00\x00\x00\x00\x00\x00\x00\x00\x00\x00\x00\x00\x00\x00\x00\x00\x00\x00\x00\x00\x00\x00\x00\x00\x00\x00\x00\x00\x00\x00\x00\x00\x00\x00\x00\x00\x00\x00\x00\x00\x00\x00\x00\x00\x00\x00\x00\x00\x00\x00\x00\x00\x00\x00\x00\x00\x00\x00\x00\x00\x00\x00\x00\x00'
p1214
Ntp1215
bsg23
g1036
(g1037
g1038
g1039
g1040
tp1216
Rp1217
(I1
(I96
I1
tp1218
g1046
I00
S"\x00\xa2\x8bF\x00\x10\x9fF\x00\x9c\xb2F\x00 \xc6F\x00\xaa\xd9F\x00J\xedF\x00]\x00G\x00%\nG\x00\xe7\x13G\x00\xaa\x1dG\x00~'G\x00>1G\x00\x02;G\x00\xecDG\x00\x8bNG\x00?XG\x00\x13bG\x00\xd0kG\x00\x8buG\x00P\x7fG\x00\x8a\x84G\x00l\x89G\x00R\x8eG\x800\x93G\x00\x13\x98G\x00\xf9\x9cG\x00\xdb\xa1G\x00\xbd\xa6G\x80\x9f\xabG\x80}\xb0G\x80_\xb5G\x80B\xbaG\x80'\xbfG\x00\x06\xc4G\x00\xe9\xc8G\x80\xca\xcdG\x80\xb0\xd2G\x80\x8e\xd7G\x80u\xdcG\x00S\xe1G\x008\xe6G\x00\x18\xebG\x80\xf9\xefG\x80\xdb\xf4G\x00\xbe\xf9G\x00\x9c\xfeG\x80\xc1\x01H\x003\x04H@\xa5\x06H\x80\x14\tH@\x83\x0bH\x80\xf6\rH\x80g\x10H\x80\xd8\x12H\xc0I\x15H\x00\xbb\x17H\xc0+\x1aH\x00\x9d\x1cH\x80\x0b\x1fH\x00\x7f!H@\xf0#H\x00b&H\x00\xd1(H\xc0A+H\xc0\xb4-H\xc0&0H\x00\x972H@\x055H\xc0t7H\x80\xe69H\xc0V<H\x00\xc8>H\x009AH@\xaaCH\x00\x1bFH@\x8cHH\xc0\xfeJH@nMH@\xe1OH\xc0PRH\xc0\xc1TH@4WH\xc0\xa3YH\xc0\x14\\H\xc0\x85^H\x00\xf7`H\xc0gcH@\xd9eH\x00IhH@\xbbjH@-mH@\x9doH\xc0\x0erH\x80\x7ftH\x80\xf0vH\xc0ayH"
p1219
S'\x00\x00\x00\x00\x00\x00\x00\x00\x00\x00\x00\x00\x00\x00\x00\x00\x00\x00\x00\x00\x00\x00\x00\x00\x00\x00\x00\x00\x00\x00\x00\x00\x00\x00\x00\x00\x00\x00\x00\x00\x00\x00\x00\x00\x00\x00\x00\x00\x00\x00\x00\x00\x00\x00\x00\x00\x00\x00\x00\x00\x00\x00\x00\x00\x00\x00\x00\x00\x00\x00\x00\x00\x00\x00\x00\x00\x00\x00\x00\x00\x00\x00\x00\x00\x00\x00\x00\x00\x00\x00\x00\x00\x00\x00\x00\x00'
p1220
Ntp1221
bsg19
g1036
(g1037
g1038
g1039
g1040
tp1222
Rp1223
(I1
(I96
I1
tp1224
g1046
I00
S'\x00\x00\xfaD\x00\x00\xfaD\x00\x00\xfaD\x00\x00\xfaD\x00\x00\xfaD\x00\x00\xfaD\x00\x00\xfaD\x00\x00\xfaD\x00\x00\xfaD\x00\x00\xfaD\x00\x00\xfaD\x00\x00\xfaD\x00\x00\xfaD\x00\x00\xfaD\x00\x00\xfaD\x00\x00\xfaD\x00\x00\xfaD\x00\x00\xfaD\x00\x00\xfaD\x00\x00\xfaD\x00\x00\xfaD\x00\x00\xfaD\x00\x00\xfaD\x00\x00\xfaD\x00\x00\xfaD\x00\x00\xfaD\x00\x00\xfaD\x00\x00\xfaD\x00\x00\xfaD\x00\x00\xfaD\x00\x00\xfaD\x00\x00\xfaD\x00\x00\xfaD\x00\x00\xfaD\x00\x00\xfaD\x00\x00\xfaD\x00\x00\xfaD\x00\x00\xfaD\x00\x00\xfaD\x00\x00\xfaD\x00\x00\xfaD\x00\x00\xfaD\x00\x00\xfaD\x00\x00\xfaD\x00\x00\xfaD\x00\x00\xfaD\x00\x00\xfaD\x00\x00\xfaD\x00\x00\xfaD\x00\x00\xfaD\x00\x00\xfaD\x00\x00\xfaD\x00\x00\xfaD\x00\x00\xfaD\x00\x00\xfaD\x00\x00\xfaD\x00\x00\xfaD\x00\x00\xfaD\x00\x00\xfaD\x00\x00\xfaD\x00\x00\xfaD\x00\x00\xfaD\x00\x00\xfaD\x00\x00\xfaD\x00\x00\xfaD\x00\x00\xfaD\x00\x00\xfaD\x00\x00\xfaD\x00\x00\xfaD\x00\x00\xfaD\x00\x00\xfaD\x00\x00\xfaD\x00\x00\xfaD\x00\x00\xfaD\x00\x00\xfaD\x00\x00\xfaD\x00\x00\xfaD\x00\x00\xfaD\x00\x00\xfaD\x00\x00\xfaD\x00\x00\xfaD\x00\x00\xfaD\x00\x00\xfaD\x00\x00\xfaD\x00\x00\xfaD\x00\x00\xfaD\x00\x00\xfaD\x00\x00\xfaD\x00\x00\xfaD\x00\x00\xfaD\x00\x00\xfaD\x00\x00\xfaD\x00\x00\xfaD\x00\x00\xfaD\x00\x00\xfaD\x00\x00\xfaD'
p1225
S'\x00\x00\x00\x00\x00\x00\x00\x00\x00\x00\x00\x00\x00\x00\x00\x00\x00\x00\x00\x00\x00\x00\x00\x00\x00\x00\x00\x00\x00\x00\x00\x00\x00\x00\x00\x00\x00\x00\x00\x00\x00\x00\x00\x00\x00\x00\x00\x00\x00\x00\x00\x00\x00\x00\x00\x00\x00\x00\x00\x00\x00\x00\x00\x00\x00\x00\x00\x00\x00\x00\x00\x00\x00\x00\x00\x00\x00\x00\x00\x00\x00\x00\x00\x00\x00\x00\x00\x00\x00\x00\x00\x00\x00\x00\x00\x00'
p1226
Ntp1227
bsg20
g1036
(g1037
g1038
g1039
g1040
tp1228
Rp1229
(I1
(I96
I1
tp1230
g1046
I00
S'\x00\xe4wF\x00\x96\x8fF\x00\x08\xa3F\x00\xac\xb6F\x00\x16\xcaF\x00\xa2\xddF\x00>\xf1F\x00]\x02G\x00 \x0cG\x00\xe6\x15G\x00\xb6\x1fG\x00k)G\x00:3G\x00\xff<G\x00\xc5FG\x00\x89PG\x00MZG\x00\x0edG\x00\xd6mG\x00\x88wG\x80\xa6\x80G\x80\x88\x85G\x00k\x8aG\x00L\x8fG\x000\x94G\x80\x11\x99G\x00\xf7\x9dG\x80\xd8\xa2G\x00\xbb\xa7G\x80\x99\xacG\x80\x7f\xb1G\x00^\xb6G\x00A\xbbG\x00&\xc0G\x80\x07\xc5G\x00\xea\xc9G\x00\xc8\xceG\x00\xab\xd3G\x80\x8e\xd8G\x00p\xddG\x80Q\xe2G\x004\xe7G\x80\x14\xecG\x80\xf7\xf0G\x80\xda\xf5G\x80\xbc\xfaG\x80\x99\xffG\x80@\x02H\x00\xb2\x04H\xc0#\x07H@\x93\tH\x80\x05\x0cH\x80u\x0eH\x80\xe6\x10H\x00X\x13H@\xc9\x15H\x00:\x18H\x80\xa8\x1aH@\x1c\x1dH@\x8d\x1fH\xc0\xfe!H@o$H\xc0\xe0&H\x00P)H\xc0\xbf+H@3.H\x80\xa00H\xc0\x153H\x00\x845H\x00\xf87H\x00f:H@\xda<H\x00H?H\x00\xb8AH\xc0*DH@\x9bFH\xc0\x0cIH\x80}KH\x80\xedMH\xc0^PH\x80\xd0RH\x00BUH@\xb2WH\x80"ZH\xc0\x93\\H\x00\x05_H\xc0waH\x80\xe8cH\xc0XfH\x80\xc8hH\x80;kH@\xabmH\x00\x1dpH@\x8drH@\xfftH\x80owH'
p1231
S'\x00\x00\x00\x00\x00\x00\x00\x00\x00\x00\x00\x00\x00\x00\x00\x00\x00\x00\x00\x00\x00\x00\x00\x00\x00\x00\x00\x00\x00\x00\x00\x00\x00\x00\x00\x00\x00\x00\x00\x00\x00\x00\x00\x00\x00\x00\x00\x00\x00\x00\x00\x00\x00\x00\x00\x00\x00\x00\x00\x00\x00\x00\x00\x00\x00\x00\x00\x00\x00\x00\x00\x00\x00\x00\x00\x00\x00\x00\x00\x00\x00\x00\x00\x00\x00\x00\x00\x00\x00\x00\x00\x00\x00\x00\x00\x00'
p1232
Ntp1233
bsg14
g1052
(g1038
(I0
tp1234
g1040
tp1235
Rp1236
(I1
(I96
I1
tp1237
g1059
I00
(lp1238
g65
ag65
ag65
ag65
ag65
ag65
ag65
ag65
ag65
ag65
ag65
ag65
ag65
ag65
ag65
ag65
ag65
ag65
ag65
ag65
ag65
ag65
ag65
ag65
ag65
ag65
ag65
ag65
ag65
ag65
ag65
ag65
ag65
ag65
ag65
ag65
ag65
ag65
ag65
ag65
ag65
ag65
ag65
ag65
ag65
ag65
ag65
ag65
ag65
ag65
ag65
ag65
ag65
ag65
ag65
ag65
ag65
ag65
ag65
ag65
ag65
ag65
ag65
ag65
ag65
ag65
ag65
ag65
ag65
ag65
ag65
ag65
ag65
ag65
ag65
ag65
ag65
ag65
ag65
ag65
ag65
ag65
ag65
ag65
ag65
ag65
ag65
ag65
ag65
ag65
ag65
ag65
ag65
ag65
ag65
ag65
atp1239
bsg21
g1036
(g1037
g1038
g1039
g1040
tp1240
Rp1241
(I1
(I96
I1
tp1242
g1046
I00
S"\x00\xa2\x8bF\x00\x10\x9fF\x00\x9c\xb2F\x00 \xc6F\x00\xac\xd9F\x00J\xedF\x00]\x00G\x00%\nG\x00\xe7\x13G\x00\xaa\x1dG\x00~'G\x00>1G\x00\x02;G\x00\xedDG\x00\x8bNG\x00?XG\x00\x13bG\x00\xd0kG\x00\x8buG\x00P\x7fG\x00\x8a\x84G\x00l\x89G\x00R\x8eG\x800\x93G\x80\x13\x98G\x00\xf9\x9cG\x00\xdb\xa1G\x00\xbd\xa6G\x80\x9f\xabG\x80}\xb0G\x80_\xb5G\x80B\xbaG\x80'\xbfG\x00\x06\xc4G\x80\xe9\xc8G\x80\xca\xcdG\x80\xb0\xd2G\x80\x8e\xd7G\x80u\xdcG\x80S\xe1G\x008\xe6G\x00\x18\xebG\x80\xf9\xefG\x80\xdb\xf4G\x00\xbe\xf9G\x00\x9c\xfeG\x80\xc1\x01H@3\x04H@\xa5\x06H\x80\x14\tH@\x83\x0bH\x80\xf6\rH\x80g\x10H\x80\xd8\x12H\xc0I\x15H\x00\xbb\x17H\xc0+\x1aH\x00\x9d\x1cH\x80\x0b\x1fH\x00\x7f!H@\xf0#H\x00b&H\x00\xd1(H\xc0A+H\xc0\xb4-H\xc0&0H\x00\x972H@\x055H\xc0t7H\x80\xe69H\xc0V<H\x00\xc8>H\x009AH@\xaaCH\x00\x1bFH@\x8cHH\xc0\xfeJH@nMH@\xe1OH\xc0PRH\xc0\xc1TH@4WH\xc0\xa3YH\x00\x15\\H\xc0\x85^H\x00\xf7`H\xc0gcH@\xd9eH\x00IhH@\xbbjH@-mH@\x9doH\xc0\x0erH\x80\x7ftH\x80\xf0vH\xc0ayH"
p1243
S'\x00\x00\x00\x00\x00\x00\x00\x00\x00\x00\x00\x00\x00\x00\x00\x00\x00\x00\x00\x00\x00\x00\x00\x00\x00\x00\x00\x00\x00\x00\x00\x00\x00\x00\x00\x00\x00\x00\x00\x00\x00\x00\x00\x00\x00\x00\x00\x00\x00\x00\x00\x00\x00\x00\x00\x00\x00\x00\x00\x00\x00\x00\x00\x00\x00\x00\x00\x00\x00\x00\x00\x00\x00\x00\x00\x00\x00\x00\x00\x00\x00\x00\x00\x00\x00\x00\x00\x00\x00\x00\x00\x00\x00\x00\x00\x00'
p1244
Ntp1245
bsg22
g1036
(g1037
g1038
g1039
g1040
tp1246
Rp1247
(I1
(I96
I1
tp1248
g1046
I00
S'\x00\x00\x00\x00\x00\x00\x00\x00\x00\x00\x00\x00\x00\x00\x00\x00\x00\x00\x00\x00\x00\x00\x00\x00\x00\x00\x00\x00\x00\x00\x00\x00\x00\x00\x00\x00\x00\x00\x00\x00\x00\x00\x00\x00\x00\x00\x00\x00\x00\x00\x00\x00\x00\x00\x00\x00\x00\x00\x00\x00\x00\x00\x00\x00\x00\x00\x00\x00\x00\x00\x00\x00\x00\x00\x00\x00\x00\x00\x00\x00\x00\x00\x00\x00\x00\x00\x00\x00\x00\x00\x00\x00\x00\x00\x00\x00\x00\x00\x00\x00\x00\x00\x00\x00\x00\x00\x00\x00\x00\x00\x00\x00\x00\x00\x00\x00\x00\x00\x00\x00\x00\x00\x00\x00\x00\x00\x00\x00\x00\x00\x00\x00\x00\x00\x00\x00\x00\x00\x00\x00\x00\x00\x00\x00\x00\x00\x00\x00\x00\x00\x00\x00\x00\x00\x00\x00\x00\x00\x00\x00\x00\x00\x00\x00\x00\x00\x00\x00\x00\x00\x00\x00\x00\x00\x00\x00\x00\x00\x00\x00\x00\x00\x00\x00\x00\x00\x00\x00\x00\x00\x00\x00\x00\x00\x00\x00\x00\x00\x00\x00\x00\x00\x00\x00\x00\x00\x00\x00\x00\x00\x00\x00\x00\x00\x00\x00\x00\x00\x00\x00\x00\x00\x00\x00\x00\x00\x00\x00\x00\x00\x00\x00\x00\x00\x00\x00\x00\x00\x00\x00\x00\x00\x00\x00\x00\x00\x00\x00\x00\x00\x00\x00\x00\x00\x00\x00\x00\x00\x00\x00\x00\x00\x00\x00\x00\x00\x00\x00\x00\x00\x00\x00\x00\x00\x00\x00\x00\x00\x00\x00\x00\x00\x00\x00\x00\x00\x00\x00\x00\x00\x00\x00\x00\x00\x00\x00\x00\x00\x00\x00\x00\x00\x00\x00\x00\x00\x00\x00\x00\x00\x00\x00\x00\x00\x00\x00\x00\x00\x00\x00\x00\x00\x00\x00\x00\x00\x00\x00\x00\x00\x00\x00\x00\x00\x00\x00\x00\x00\x00\x00\x00\x00\x00\x00\x00\x00\x00\x00\x00\x00\x00\x00\x00\x00\x00\x00\x00\x00\x00\x00\x00\x00\x00\x00\x00\x00\x00\x00\x00\x00\x00\x00\x00\x00\x00\x00\x00\x00\x00\x00\x00\x00\x00\x00'
p1249
S'\x00\x00\x00\x00\x00\x00\x00\x00\x00\x00\x00\x00\x00\x00\x00\x00\x00\x00\x00\x00\x00\x00\x00\x00\x00\x00\x00\x00\x00\x00\x00\x00\x00\x00\x00\x00\x00\x00\x00\x00\x00\x00\x00\x00\x00\x00\x00\x00\x00\x00\x00\x00\x00\x00\x00\x00\x00\x00\x00\x00\x00\x00\x00\x00\x00\x00\x00\x00\x00\x00\x00\x00\x00\x00\x00\x00\x00\x00\x00\x00\x00\x00\x00\x00\x00\x00\x00\x00\x00\x00\x00\x00\x00\x00\x00\x00'
p1250
Ntp1251
bsg18
g1036
(g1037
g1038
g1039
g1040
tp1252
Rp1253
(I1
(I96
I1
tp1254
g1046
I00
S"\x00\xa2\x8bF\x00\x10\x9fF\x00\x9c\xb2F\x00 \xc6F\x00\xac\xd9F\x00J\xedF\x00]\x00G\x00%\nG\x00\xe7\x13G\x00\xaa\x1dG\x00~'G\x00>1G\x00\x02;G\x00\xedDG\x00\x8bNG\x00?XG\x00\x13bG\x00\xd0kG\x00\x8buG\x00P\x7fG\x00\x8a\x84G\x00l\x89G\x00R\x8eG\x800\x93G\x80\x13\x98G\x00\xf9\x9cG\x00\xdb\xa1G\x00\xbd\xa6G\x80\x9f\xabG\x80}\xb0G\x80_\xb5G\x80B\xbaG\x80'\xbfG\x00\x06\xc4G\x80\xe9\xc8G\x80\xca\xcdG\x80\xb0\xd2G\x80\x8e\xd7G\x80u\xdcG\x80S\xe1G\x008\xe6G\x00\x18\xebG\x80\xf9\xefG\x80\xdb\xf4G\x00\xbe\xf9G\x00\x9c\xfeG\x80\xc1\x01H@3\x04H@\xa5\x06H\x80\x14\tH@\x83\x0bH\x80\xf6\rH\x80g\x10H\x80\xd8\x12H\xc0I\x15H\x00\xbb\x17H\xc0+\x1aH\x00\x9d\x1cH\x80\x0b\x1fH\x00\x7f!H@\xf0#H\x00b&H\x00\xd1(H\xc0A+H\xc0\xb4-H\xc0&0H\x00\x972H@\x055H\xc0t7H\x80\xe69H\xc0V<H\x00\xc8>H\x009AH@\xaaCH\x00\x1bFH@\x8cHH\xc0\xfeJH@nMH@\xe1OH\xc0PRH\xc0\xc1TH@4WH\xc0\xa3YH\x00\x15\\H\xc0\x85^H\x00\xf7`H\xc0gcH@\xd9eH\x00IhH@\xbbjH@-mH@\x9doH\xc0\x0erH\x80\x7ftH\x80\xf0vH\xc0ayH"
p1255
S'\x00\x00\x00\x00\x00\x00\x00\x00\x00\x00\x00\x00\x00\x00\x00\x00\x00\x00\x00\x00\x00\x00\x00\x00\x00\x00\x00\x00\x00\x00\x00\x00\x00\x00\x00\x00\x00\x00\x00\x00\x00\x00\x00\x00\x00\x00\x00\x00\x00\x00\x00\x00\x00\x00\x00\x00\x00\x00\x00\x00\x00\x00\x00\x00\x00\x00\x00\x00\x00\x00\x00\x00\x00\x00\x00\x00\x00\x00\x00\x00\x00\x00\x00\x00\x00\x00\x00\x00\x00\x00\x00\x00\x00\x00\x00\x00'
p1256
Ntp1257
bsg28
g1036
(g1037
g1038
g1039
g1040
tp1258
Rp1259
(I1
(I96
I1
tp1260
g1046
I00
S'\x00\x00\x00\x00\x00\x00\x00\x00\x00\x00\x00\x00\x00\x00\x00\x00\x00\x00\x00\x00\x00\x00\x00\x00\x00\x00\x00\x00\x00\x00\x00\x00\x00\x00\x00\x00\x00\x00\x00\x00\x00\x00\x00\x00\x00\x00\x00\x00\x00\x00\x00\x00\x00\x00\x00\x00\x00\x00\x00\x00\x00\x00\x00\x00\x00\x00\x00\x00\x00\x00\x00\x00\x00\x00\x00\x00\x00\x00\x00\x00\x00\x00\x00\x00\x00\x00\x00\x00\x00\x00\x00\x00\x00\x00\x00\x00\x00\x00\x00\x00\x00\x00\x00\x00\x00\x00\x00\x00\x00\x00\x00\x00\x00\x00\x00\x00\x00\x00\x00\x00\x00\x00\x00\x00\x00\x00\x00\x00\x00\x00\x00\x00\x00\x00\x00\x00\x00\x00\x00\x00\x00\x00\x00\x00\x00\x00\x00\x00\x00\x00\x00\x00\x00\x00\x00\x00\x00\x00\x00\x00\x00\x00\x00\x00\x00\x00\x00\x00\x00\x00\x00\x00\x00\x00\x00\x00\x00\x00\x00\x00\x00\x00\x00\x00\x00\x00\x00\x00\x00\x00\x00\x00\x00\x00\x00\x00\x00\x00\x00\x00\x00\x00\x00\x00\x00\x00\x00\x00\x00\x00\x00\x00\x00\x00\x00\x00\x00\x00\x00\x00\x00\x00\x00\x00\x00\x00\x00\x00\x00\x00\x00\x00\x00\x00\x00\x00\x00\x00\x00\x00\x00\x00\x00\x00\x00\x00\x00\x00\x00\x00\x00\x00\x00\x00\x00\x00\x00\x00\x00\x00\x00\x00\x00\x00\x00\x00\x00\x00\x00\x00\x00\x00\x00\x00\x00\x00\x00\x00\x00\x00\x00\x00\x00\x00\x00\x00\x00\x00\x00\x00\x00\x00\x00\x00\x00\x00\x00\x00\x00\x00\x00\x00\x00\x00\x00\x00\x00\x00\x00\x00\x00\x00\x00\x00\x00\x00\x00\x00\x00\x00\x00\x00\x00\x00\x00\x00\x00\x00\x00\x00\x00\x00\x00\x00\x00\x00\x00\x00\x00\x00\x00\x00\x00\x00\x00\x00\x00\x00\x00\x00\x00\x00\x00\x00\x00\x00\x00\x00\x00\x00\x00\x00\x00\x00\x00\x00\x00\x00\x00\x00\x00\x00\x00\x00\x00\x00\x00\x00\x00\x00\x00\x00\x00\x00'
p1261
S'\x00\x00\x00\x00\x00\x00\x00\x00\x00\x00\x00\x00\x00\x00\x00\x00\x00\x00\x00\x00\x00\x00\x00\x00\x00\x00\x00\x00\x00\x00\x00\x00\x00\x00\x00\x00\x00\x00\x00\x00\x00\x00\x00\x00\x00\x00\x00\x00\x00\x00\x00\x00\x00\x00\x00\x00\x00\x00\x00\x00\x00\x00\x00\x00\x00\x00\x00\x00\x00\x00\x00\x00\x00\x00\x00\x00\x00\x00\x00\x00\x00\x00\x00\x00\x00\x00\x00\x00\x00\x00\x00\x00\x00\x00\x00\x00'
p1262
Ntp1263
bsg24
g1036
(g1037
g1038
g1039
g1040
tp1264
Rp1265
(I1
(I96
I1
tp1266
g1046
I00
S"\x00\xa2\x8bF\x00\x10\x9fF\x00\x9c\xb2F\x00 \xc6F\x00\xac\xd9F\x00J\xedF\x00]\x00G\x00%\nG\x00\xe7\x13G\x00\xab\x1dG\x00~'G\x00>1G\x00\x02;G\x00\xedDG\x00\x8bNG\x00?XG\x00\x13bG\x00\xd0kG\x00\x8cuG\x00P\x7fG\x00\x8a\x84G\x00l\x89G\x00R\x8eG\x800\x93G\x80\x13\x98G\x00\xf9\x9cG\x00\xdb\xa1G\x00\xbd\xa6G\x80\x9f\xabG\x80}\xb0G\x80_\xb5G\x80B\xbaG\x80'\xbfG\x80\x06\xc4G\x80\xe9\xc8G\x80\xca\xcdG\x80\xb0\xd2G\x80\x8e\xd7G\x80u\xdcG\x80S\xe1G\x008\xe6G\x00\x18\xebG\x80\xf9\xefG\x80\xdb\xf4G\x00\xbe\xf9G\x00\x9c\xfeG\x80\xc1\x01H@3\x04H@\xa5\x06H\x80\x14\tH@\x83\x0bH\x80\xf6\rH\xc0g\x10H\x80\xd8\x12H\xc0I\x15H\x00\xbb\x17H\x00,\x1aH\x00\x9d\x1cH\xc0\x0b\x1fH\x00\x7f!H@\xf0#H\x00b&H\x00\xd1(H\xc0A+H\xc0\xb4-H\xc0&0H\x00\x972H@\x055H\xc0t7H\x80\xe69H\xc0V<H\x00\xc8>H\x009AH@\xaaCH\x00\x1bFH@\x8cHH\x00\xffJH@nMH@\xe1OH\xc0PRH\xc0\xc1TH@4WH\xc0\xa3YH\x00\x15\\H\xc0\x85^H\x00\xf7`H\xc0gcH@\xd9eH\x00IhH@\xbbjH@-mH@\x9doH\xc0\x0erH\x80\x7ftH\x80\xf0vH\xc0ayH"
p1267
S'\x00\x00\x00\x00\x00\x00\x00\x00\x00\x00\x00\x00\x00\x00\x00\x00\x00\x00\x00\x00\x00\x00\x00\x00\x00\x00\x00\x00\x00\x00\x00\x00\x00\x00\x00\x00\x00\x00\x00\x00\x00\x00\x00\x00\x00\x00\x00\x00\x00\x00\x00\x00\x00\x00\x00\x00\x00\x00\x00\x00\x00\x00\x00\x00\x00\x00\x00\x00\x00\x00\x00\x00\x00\x00\x00\x00\x00\x00\x00\x00\x00\x00\x00\x00\x00\x00\x00\x00\x00\x00\x00\x00\x00\x00\x00\x00'
p1268
Ntp1269
bsg25
g1036
(g1037
g1038
g1039
g1040
tp1270
Rp1271
(I1
(I96
I1
tp1272
g1046
I00
S'\x00\x00\xfaC\x00\x00\xfaC\x00\x00\xfaC\x00\x00\xfaC\x00\x00\xfaC\x00\x00\xfaC\x00\x00\xfaC\x00\x00\xfaC\x00\x00\xfaC\x00\x00\xfaC\x00\x00\xfaC\x00\x00\xfaC\x00\x00\xfaC\x00\x00\xfaC\x00\x00\xfaC\x00\x00\xfaC\x00\x00\xfaC\x00\x00\xfaC\x00\x00\xfaC\x00\x00\xfaC\x00\x00\xfaC\x00\x00\xfaC\x00\x00\xfaC\x00\x00\xfaC\x00\x00\xfaC\x00\x00\xfaC\x00\x00\xfaC\x00\x00\xfaC\x00\x00\xfaC\x00\x00\xfaC\x00\x00\xfaC\x00\x00\xfaC\x00\x00\xfaC\x00\x00\xfaC\x00\x00\xfaC\x00\x00\xfaC\x00\x00\xfaC\x00\x00\xfaC\x00\x00\xfaC\x00\x00\xfaC\x00\x00\xfaC\x00\x00\xfaC\x00\x00\xfaC\x00\x00\xfaC\x00\x00\xfaC\x00\x00\xfaC\x00\x00\xfaC\x00\x00\xfaC\x00\x00\xfaC\x00\x00\xfaC\x00\x00\xfaC\x00\x00\xfaC\x00\x00\xfaC\x00\x00\xfaC\x00\x00\xfaC\x00\x00\xfaC\x00\x00\xfaC\x00\x00\xfaC\x00\x00\xfaC\x00\x00\xfaC\x00\x00\xfaC\x00\x00\xfaC\x00\x00\xfaC\x00\x00\xfaC\x00\x00\xfaC\x00\x00\xfaC\x00\x00\xfaC\x00\x00\xfaC\x00\x00\xfaC\x00\x00\xfaC\x00\x00\xfaC\x00\x00\xfaC\x00\x00\xfaC\x00\x00\xfaC\x00\x00\xfaC\x00\x00\xfaC\x00\x00\xfaC\x00\x00\xfaC\x00\x00\xfaC\x00\x00\xfaC\x00\x00\xfaC\x00\x00\xfaC\x00\x00\xfaC\x00\x00\xfaC\x00\x00\xfaC\x00\x00\xfaC\x00\x00\xfaC\x00\x00\xfaC\x00\x00\xfaC\x00\x00\xfaC\x00\x00\xfaC\x00\x00\xfaC\x00\x00\xfaC\x00\x00\xfaC\x00\x00\xfaC\x00\x00\xfaC'
p1273
S'\x00\x00\x00\x00\x00\x00\x00\x00\x00\x00\x00\x00\x00\x00\x00\x00\x00\x00\x00\x00\x00\x00\x00\x00\x00\x00\x00\x00\x00\x00\x00\x00\x00\x00\x00\x00\x00\x00\x00\x00\x00\x00\x00\x00\x00\x00\x00\x00\x00\x00\x00\x00\x00\x00\x00\x00\x00\x00\x00\x00\x00\x00\x00\x00\x00\x00\x00\x00\x00\x00\x00\x00\x00\x00\x00\x00\x00\x00\x00\x00\x00\x00\x00\x00\x00\x00\x00\x00\x00\x00\x00\x00\x00\x00\x00\x00'
p1274
Ntp1275
bsg26
g1036
(g1037
g1038
g1039
g1040
tp1276
Rp1277
(I1
(I96
I1
tp1278
g1046
I00
S'\x00\x84\x8fF\x00\xf8\xa2F\x00\x9e\xb6F\x00\x06\xcaF\x00\x94\xddF\x000\xf1F\x00U\x02G\x00\x17\x0cG\x00\xdf\x15G\x00\xaf\x1fG\x00a)G\x0023G\x00\xf6<G\x00\xbfFG\x00\x7fPG\x00CZG\x00\x07dG\x00\xcbmG\x00\x80wG\x80\xa1\x80G\x80\x84\x85G\x00f\x8aG\x00H\x8fG\x80,\x94G\x80\x0c\x99G\x00\xf3\x9dG\x80\xd4\xa2G\x80\xb7\xa7G\x80\x95\xacG\x80{\xb1G\x80Y\xb6G\x80;\xbbG\x00"\xc0G\x00\x04\xc5G\x00\xe6\xc9G\x00\xc4\xceG\x00\xa6\xd3G\x80\x8b\xd8G\x00k\xddG\x80M\xe2G\x80/\xe7G\x80\x12\xecG\x80\xf3\xf0G\x00\xd6\xf5G\x00\xb8\xfaG\x80\x95\xffG\xc0>\x02H\x00\xb0\x04H\x00"\x07H@\x91\tH\xc0\x03\x0cH@s\x0eH\x80\xe4\x10H\xc0U\x13H\xc0\xc6\x15H\xc07\x18H\xc0\xa6\x1aH\x00\x1a\x1dH@\x8b\x1fH\x00\xfc!H\x00m$H@\xde&H\x00N)H\xc0\xbd+H@1.H\xc0\x9e0H\x80\x133H@\x825H\xc0\xf57H@d:H\x00\xd8<H\x80F?H\x00\xb6AH\x00)DH\xc0\x99FH\x00\x0bIH\x00|KH@\xebMH@\\PH\x00\xcfRH@@UH\x80\xafWH\xc0 ZH\x00\x92\\H\x80\x02_H\xc0uaH\xc0\xe6cH\x00VfH\xc0\xc6hH\x00:kH@\xa9mH@\x1apH@\x8brH@\xfdtH@mwH\x80\xdeyH'
p1279
S'\x00\x00\x00\x00\x00\x00\x00\x00\x00\x00\x00\x00\x00\x00\x00\x00\x00\x00\x00\x00\x00\x00\x00\x00\x00\x00\x00\x00\x00\x00\x00\x00\x00\x00\x00\x00\x00\x00\x00\x00\x00\x00\x00\x00\x00\x00\x00\x00\x00\x00\x00\x00\x00\x00\x00\x00\x00\x00\x00\x00\x00\x00\x00\x00\x00\x00\x00\x00\x00\x00\x00\x00\x00\x00\x00\x00\x00\x00\x00\x00\x00\x00\x00\x00\x00\x00\x00\x00\x00\x00\x00\x00\x00\x00\x00\x00'
p1280
Ntp1281
bsg15
g1036
(g1037
g1038
g1039
g1040
tp1282
Rp1283
(I1
(I96
I1
tp1284
g1046
I00
S'\x00\x00\x00\x00\x00\x00\x00\x00\x00\x00\x00\x00\x00\x00\x00\x00\x00\x00\x00\x00\x00\x00\x00\x00\x00\x00\x00\x00\x00\x00\x00\x00\x00\x00\x00\x00\x00\x00\x00\x00\x00\x00\x00\x00\x00\x00\x00\x00\x00\x00\x00\x00\x00\x00\x00\x00\x00\x00\x00\x00\x00\x00\x00\x00\x00\x00\x00\x00\x00\x00\x00\x00\x00\x00\x00\x00\x00\x00\x00\x00\x00\x00\x00\x00\x00\x00\x00\x00\x00\x00\x00\x00\x00\x00\x00\x00\x00\x00\x00\x00\x00\x00\x00\x00\x00\x00\x00\x00\x00\x00\x00\x00\x00\x00\x00\x00\x00\x00\x00\x00\x00\x00\x00\x00\x00\x00\x00\x00\x00\x00\x00\x00\x00\x00\x00\x00\x00\x00\x00\x00\x00\x00\x00\x00\x00\x00\x00\x00\x00\x00\x00\x00\x00\x00\x00\x00\x00\x00\x00\x00\x00\x00\x00\x00\x00\x00\x00\x00\x00\x00\x00\x00\x00\x00\x00\x00\x00\x00\x00\x00\x00\x00\x00\x00\x00\x00\x00\x00\x00\x00\x00\x00\x00\x00\x00\x00\x00\x00\x00\x00\x00\x00\x00\x00\x00\x00\x00\x00\x00\x00\x00\x00\x00\x00\x00\x00\x00\x00\x00\x00\x00\x00\x00\x00\x00\x00\x00\x00\x00\x00\x00\x00\x00\x00\x00\x00\x00\x00\x00\x00\x00\x00\x00\x00\x00\x00\x00\x00\x00\x00\x00\x00\x00\x00\x00\x00\x00\x00\x00\x00\x00\x00\x00\x00\x00\x00\x00\x00\x00\x00\x00\x00\x00\x00\x00\x00\x00\x00\x00\x00\x00\x00\x00\x00\x00\x00\x00\x00\x00\x00\x00\x00\x00\x00\x00\x00\x00\x00\x00\x00\x00\x00\x00\x00\x00\x00\x00\x00\x00\x00\x00\x00\x00\x00\x00\x00\x00\x00\x00\x00\x00\x00\x00\x00\x00\x00\x00\x00\x00\x00\x00\x00\x00\x00\x00\x00\x00\x00\x00\x00\x00\x00\x00\x00\x00\x00\x00\x00\x00\x00\x00\x00\x00\x00\x00\x00\x00\x00\x00\x00\x00\x00\x00\x00\x00\x00\x00\x00\x00\x00\x00\x00\x00\x00\x00\x00\x00\x00\x00\x00\x00\x00\x00\x00'
p1285
S'\x00\x00\x00\x00\x00\x00\x00\x00\x00\x00\x00\x00\x00\x00\x00\x00\x00\x00\x00\x00\x00\x00\x00\x00\x00\x00\x00\x00\x00\x00\x00\x00\x00\x00\x00\x00\x00\x00\x00\x00\x00\x00\x00\x00\x00\x00\x00\x00\x00\x00\x00\x00\x00\x00\x00\x00\x00\x00\x00\x00\x00\x00\x00\x00\x00\x00\x00\x00\x00\x00\x00\x00\x00\x00\x00\x00\x00\x00\x00\x00\x00\x00\x00\x00\x00\x00\x00\x00\x00\x00\x00\x00\x00\x00\x00\x00'
p1286
Ntp1287
bsg1143
g1036
(g1037
g1038
g1039
g1040
tp1288
Rp1289
(I1
(I96
I1
tp1290
g1046
I00
S'\x00\x00\x00\x00\x00\x00\x80?\x00\x00\x00@\x00\x00@@\x00\x00\x80@\x00\x00\xa0@\x00\x00\xc0@\x00\x00\xe0@\x00\x00\x00A\x00\x00\x10A\x00\x00 A\x00\x000A\x00\x00@A\x00\x00PA\x00\x00`A\x00\x00pA\x00\x00\x80A\x00\x00\x88A\x00\x00\x90A\x00\x00\x98A\x00\x00\xa0A\x00\x00\xa8A\x00\x00\xb0A\x00\x00\xb8A\x00\x00\xc0A\x00\x00\xc8A\x00\x00\xd0A\x00\x00\xd8A\x00\x00\xe0A\x00\x00\xe8A\x00\x00\xf0A\x00\x00\xf8A\x00\x00\x00B\x00\x00\x04B\x00\x00\x08B\x00\x00\x0cB\x00\x00\x10B\x00\x00\x14B\x00\x00\x18B\x00\x00\x1cB\x00\x00 B\x00\x00$B\x00\x00(B\x00\x00,B\x00\x000B\x00\x004B\x00\x008B\x00\x00<B\x00\x00@B\x00\x00DB\x00\x00HB\x00\x00LB\x00\x00PB\x00\x00TB\x00\x00XB\x00\x00\\B\x00\x00`B\x00\x00dB\x00\x00hB\x00\x00lB\x00\x00pB\x00\x00tB\x00\x00xB\x00\x00|B\x00\x00\x80B\x00\x00\x82B\x00\x00\x84B\x00\x00\x86B\x00\x00\x88B\x00\x00\x8aB\x00\x00\x8cB\x00\x00\x8eB\x00\x00\x90B\x00\x00\x92B\x00\x00\x94B\x00\x00\x96B\x00\x00\x98B\x00\x00\x9aB\x00\x00\x9cB\x00\x00\x9eB\x00\x00\xa0B\x00\x00\xa2B\x00\x00\xa4B\x00\x00\xa6B\x00\x00\xa8B\x00\x00\xaaB\x00\x00\xacB\x00\x00\xaeB\x00\x00\xb0B\x00\x00\xb2B\x00\x00\xb4B\x00\x00\xb6B\x00\x00\xb8B\x00\x00\xbaB\x00\x00\xbcB\x00\x00\xbeB'
p1291
S'\x00\x00\x00\x00\x00\x00\x00\x00\x00\x00\x00\x00\x00\x00\x00\x00\x00\x00\x00\x00\x00\x00\x00\x00\x00\x00\x00\x00\x00\x00\x00\x00\x00\x00\x00\x00\x00\x00\x00\x00\x00\x00\x00\x00\x00\x00\x00\x00\x00\x00\x00\x00\x00\x00\x00\x00\x00\x00\x00\x00\x00\x00\x00\x00\x00\x00\x00\x00\x00\x00\x00\x00\x00\x00\x00\x00\x00\x00\x00\x00\x00\x00\x00\x00\x00\x00\x00\x00\x00\x00\x00\x00\x00\x00\x00\x00'
p1292
Ntp1293
bsg27
g1036
(g1037
g1038
g1039
g1040
tp1294
Rp1295
(I1
(I96
I1
tp1296
g1046
I00
S'\x00\x84\x8fF\x00\xf8\xa2F\x00\x9e\xb6F\x00\x06\xcaF\x00\x94\xddF\x000\xf1F\x00U\x02G\x00\x17\x0cG\x00\xdf\x15G\x00\xaf\x1fG\x00a)G\x0023G\x00\xf6<G\x00\xbfFG\x00\x7fPG\x00CZG\x00\x08dG\x00\xcbmG\x00\x80wG\x00\xa2\x80G\x80\x84\x85G\x00f\x8aG\x00H\x8fG\x80,\x94G\x80\x0c\x99G\x80\xf3\x9dG\x80\xd4\xa2G\x80\xb7\xa7G\x80\x95\xacG\x80{\xb1G\x80Y\xb6G\x80;\xbbG\x00"\xc0G\x00\x04\xc5G\x00\xe6\xc9G\x00\xc4\xceG\x80\xa6\xd3G\x80\x8b\xd8G\x00k\xddG\x80M\xe2G\x80/\xe7G\x80\x12\xecG\x80\xf3\xf0G\x00\xd6\xf5G\x00\xb8\xfaG\x80\x95\xffG\xc0>\x02H\x00\xb0\x04H\x00"\x07H@\x91\tH\xc0\x03\x0cH@s\x0eH\x80\xe4\x10H\xc0U\x13H\xc0\xc6\x15H\xc07\x18H\xc0\xa6\x1aH\x00\x1a\x1dH@\x8b\x1fH\x00\xfc!H\x00m$H@\xde&H\x00N)H\xc0\xbd+H@1.H\xc0\x9e0H\x80\x133H@\x825H\xc0\xf57H@d:H\x00\xd8<H\x80F?H\x00\xb6AH\x00)DH\xc0\x99FH\x00\x0bIH\x00|KH@\xebMH@\\PH\x00\xcfRH@@UH\x80\xafWH\xc0 ZH\x00\x92\\H\xc0\x02_H\xc0uaH\xc0\xe6cH\x00VfH\xc0\xc6hH\x00:kH@\xa9mH@\x1apH@\x8brH@\xfdtH@mwH\x80\xdeyH'
p1297
S'\x00\x00\x00\x00\x00\x00\x00\x00\x00\x00\x00\x00\x00\x00\x00\x00\x00\x00\x00\x00\x00\x00\x00\x00\x00\x00\x00\x00\x00\x00\x00\x00\x00\x00\x00\x00\x00\x00\x00\x00\x00\x00\x00\x00\x00\x00\x00\x00\x00\x00\x00\x00\x00\x00\x00\x00\x00\x00\x00\x00\x00\x00\x00\x00\x00\x00\x00\x00\x00\x00\x00\x00\x00\x00\x00\x00\x00\x00\x00\x00\x00\x00\x00\x00\x00\x00\x00\x00\x00\x00\x00\x00\x00\x00\x00\x00'
p1298
Ntp1299
bstp1300
Rp1301
(dp1302
g1159
(dp1303
g17
I01
sg21
I01
sg16
I00
sg1064
I01
sg22
I01
sg28
I01
sg23
I01
sg18
I01
sg24
I01
sg25
I01
sg19
I01
sg26
I01
sg20
I01
sg15
I01
sg14
I00
sg1143
I01
sg27
I01
ssg1161
g1193
sg1162
(lp1304
g1064
ag1143
ag14
ag15
ag16
ag17
ag18
ag19
ag20
ag21
ag22
ag23
ag24
ag25
ag26
ag27
ag28
asg1164
(lp1305
I96
aI1
asbsg1166
g1167
sg1168
g1052
(g1038
(I0
tp1306
g1040
tp1307
Rp1308
(I1
(I96
I1
tp1309
g125
I00
S'\x00\x00\x00\x00\x00\x00\x00\x00\x01\x00\x00\x00\x00\x00\x00\x00\x02\x00\x00\x00\x00\x00\x00\x00\x03\x00\x00\x00\x00\x00\x00\x00\x04\x00\x00\x00\x00\x00\x00\x00\x05\x00\x00\x00\x00\x00\x00\x00\x06\x00\x00\x00\x00\x00\x00\x00\x07\x00\x00\x00\x00\x00\x00\x00\x08\x00\x00\x00\x00\x00\x00\x00\t\x00\x00\x00\x00\x00\x00\x00\n\x00\x00\x00\x00\x00\x00\x00\x0b\x00\x00\x00\x00\x00\x00\x00\x0c\x00\x00\x00\x00\x00\x00\x00\r\x00\x00\x00\x00\x00\x00\x00\x0e\x00\x00\x00\x00\x00\x00\x00\x0f\x00\x00\x00\x00\x00\x00\x00\x10\x00\x00\x00\x00\x00\x00\x00\x11\x00\x00\x00\x00\x00\x00\x00\x12\x00\x00\x00\x00\x00\x00\x00\x13\x00\x00\x00\x00\x00\x00\x00\x14\x00\x00\x00\x00\x00\x00\x00\x15\x00\x00\x00\x00\x00\x00\x00\x16\x00\x00\x00\x00\x00\x00\x00\x17\x00\x00\x00\x00\x00\x00\x00\x18\x00\x00\x00\x00\x00\x00\x00\x19\x00\x00\x00\x00\x00\x00\x00\x1a\x00\x00\x00\x00\x00\x00\x00\x1b\x00\x00\x00\x00\x00\x00\x00\x1c\x00\x00\x00\x00\x00\x00\x00\x1d\x00\x00\x00\x00\x00\x00\x00\x1e\x00\x00\x00\x00\x00\x00\x00\x1f\x00\x00\x00\x00\x00\x00\x00 \x00\x00\x00\x00\x00\x00\x00!\x00\x00\x00\x00\x00\x00\x00"\x00\x00\x00\x00\x00\x00\x00#\x00\x00\x00\x00\x00\x00\x00$\x00\x00\x00\x00\x00\x00\x00%\x00\x00\x00\x00\x00\x00\x00&\x00\x00\x00\x00\x00\x00\x00\'\x00\x00\x00\x00\x00\x00\x00(\x00\x00\x00\x00\x00\x00\x00)\x00\x00\x00\x00\x00\x00\x00*\x00\x00\x00\x00\x00\x00\x00+\x00\x00\x00\x00\x00\x00\x00,\x00\x00\x00\x00\x00\x00\x00-\x00\x00\x00\x00\x00\x00\x00.\x00\x00\x00\x00\x00\x00\x00/\x00\x00\x00\x00\x00\x00\x000\x00\x00\x00\x00\x00\x00\x001\x00\x00\x00\x00\x00\x00\x002\x00\x00\x00\x00\x00\x00\x003\x00\x00\x00\x00\x00\x00\x004\x00\x00\x00\x00\x00\x00\x005\x00\x00\x00\x00\x00\x00\x006\x00\x00\x00\x00\x00\x00\x007\x00\x00\x00\x00\x00\x00\x008\x00\x00\x00\x00\x00\x00\x009\x00\x00\x00\x00\x00\x00\x00:\x00\x00\x00\x00\x00\x00\x00;\x00\x00\x00\x00\x00\x00\x00<\x00\x00\x00\x00\x00\x00\x00=\x00\x00\x00\x00\x00\x00\x00>\x00\x00\x00\x00\x00\x00\x00?\x00\x00\x00\x00\x00\x00\x00@\x00\x00\x00\x00\x00\x00\x00A\x00\x00\x00\x00\x00\x00\x00B\x00\x00\x00\x00\x00\x00\x00C\x00\x00\x00\x00\x00\x00\x00D\x00\x00\x00\x00\x00\x00\x00E\x00\x00\x00\x00\x00\x00\x00F\x00\x00\x00\x00\x00\x00\x00G\x00\x00\x00\x00\x00\x00\x00H\x00\x00\x00\x00\x00\x00\x00I\x00\x00\x00\x00\x00\x00\x00J\x00\x00\x00\x00\x00\x00\x00K\x00\x00\x00\x00\x00\x00\x00L\x00\x00\x00\x00\x00\x00\x00M\x00\x00\x00\x00\x00\x00\x00N\x00\x00\x00\x00\x00\x00\x00O\x00\x00\x00\x00\x00\x00\x00P\x00\x00\x00\x00\x00\x00\x00Q\x00\x00\x00\x00\x00\x00\x00R\x00\x00\x00\x00\x00\x00\x00S\x00\x00\x00\x00\x00\x00\x00T\x00\x00\x00\x00\x00\x00\x00U\x00\x00\x00\x00\x00\x00\x00V\x00\x00\x00\x00\x00\x00\x00W\x00\x00\x00\x00\x00\x00\x00X\x00\x00\x00\x00\x00\x00\x00Y\x00\x00\x00\x00\x00\x00\x00Z\x00\x00\x00\x00\x00\x00\x00[\x00\x00\x00\x00\x00\x00\x00\\\x00\x00\x00\x00\x00\x00\x00]\x00\x00\x00\x00\x00\x00\x00^\x00\x00\x00\x00\x00\x00\x00_\x00\x00\x00\x00\x00\x00\x00'
p1310
tp1311
bsg1175
I01
sg1176
I1
sg1177
I-1
sg1178
(lp1312
g0
(g1180
g1034
(dp1313
g154
g155
sg143
g144
sg151
g152
sg157
g145
stp1314
Rp1315
ag0
(g1180
g1034
(dp1316
g154
g166
sg143
g159
sg151
g152
sg157
g145
stp1317
Rp1318
ag0
(g1180
g1034
(dp1319
g154
g177
sg143
g169
sg151
g152
sg157
g170
stp1320
Rp1321
ag0
(g1180
g1034
(dp1322
g154
g187
sg143
g180
sg151
g152
sg157
g170
stp1323
Rp1324
ag0
(g1180
g1034
(dp1325
g154
g197
sg143
g190
sg151
g152
sg157
g145
stp1326
Rp1327
ag0
(g1180
g1034
(dp1328
g154
g206
sg143
g180
sg151
g152
sg157
g170
stp1329
Rp1330
ag0
(g1180
g1034
(dp1331
g154
g216
sg143
g209
sg151
g152
sg157
g170
stp1332
Rp1333
ag0
(g1180
g1034
(dp1334
g154
g226
sg143
g219
sg151
g152
sg157
g145
stp1335
Rp1336
ag0
(g1180
g1034
(dp1337
g154
g235
sg143
g169
sg151
g152
sg157
g170
stp1338
Rp1339
ag0
(g1180
g1034
(dp1340
g154
g245
sg143
g238
sg151
g152
sg157
g170
stp1341
Rp1342
ag0
(g1180
g1034
(dp1343
g154
g254
sg143
g209
sg151
g152
sg157
g170
stp1344
Rp1345
ag0
(g1180
g1034
(dp1346
g154
g263
sg143
g159
sg151
g152
sg157
g145
stp1347
Rp1348
ag0
(g1180
g1034
(dp1349
g154
g272
sg143
g238
sg151
g152
sg157
g170
stp1350
Rp1351
ag0
(g1180
g1034
(dp1352
g154
g281
sg143
g219
sg151
g152
sg157
g145
stp1353
Rp1354
ag0
(g1180
g1034
(dp1355
g154
g290
sg143
g190
sg151
g152
sg157
g145
stp1356
Rp1357
ag0
(g1180
g1034
(dp1358
g154
g299
sg143
g144
sg151
g152
sg157
g145
stp1359
Rp1360
ag0
(g1180
g1034
(dp1361
g154
g308
sg143
g144
sg151
g152
sg157
g145
stp1362
Rp1363
ag0
(g1180
g1034
(dp1364
g154
g317
sg143
g159
sg151
g152
sg157
g145
stp1365
Rp1366
ag0
(g1180
g1034
(dp1367
g154
g326
sg143
g180
sg151
g152
sg157
g170
stp1368
Rp1369
ag0
(g1180
g1034
(dp1370
g154
g335
sg143
g190
sg151
g152
sg157
g145
stp1371
Rp1372
ag0
(g1180
g1034
(dp1373
g154
g344
sg143
g219
sg151
g152
sg157
g145
stp1374
Rp1375
ag0
(g1180
g1034
(dp1376
g154
g353
sg143
g209
sg151
g152
sg157
g170
stp1377
Rp1378
ag0
(g1180
g1034
(dp1379
g154
g362
sg143
g209
sg151
g152
sg157
g170
stp1380
Rp1381
ag0
(g1180
g1034
(dp1382
g154
g371
sg143
g238
sg151
g152
sg157
g170
stp1383
Rp1384
ag0
(g1180
g1034
(dp1385
g154
g380
sg143
g144
sg151
g152
sg157
g145
stp1386
Rp1387
ag0
(g1180
g1034
(dp1388
g154
g389
sg143
g169
sg151
g152
sg157
g170
stp1389
Rp1390
ag0
(g1180
g1034
(dp1391
g154
g398
sg143
g219
sg151
g152
sg157
g145
stp1392
Rp1393
ag0
(g1180
g1034
(dp1394
g154
g407
sg143
g159
sg151
g152
sg157
g145
stp1395
Rp1396
ag0
(g1180
g1034
(dp1397
g154
g416
sg143
g180
sg151
g152
sg157
g170
stp1398
Rp1399
ag0
(g1180
g1034
(dp1400
g154
g425
sg143
g190
sg151
g152
sg157
g145
stp1401
Rp1402
ag0
(g1180
g1034
(dp1403
g154
g434
sg143
g169
sg151
g152
sg157
g170
stp1404
Rp1405
ag0
(g1180
g1034
(dp1406
g154
g443
sg143
g238
sg151
g152
sg157
g170
stp1407
Rp1408
ag0
(g1180
g1034
(dp1409
g154
g452
sg143
g180
sg151
g152
sg157
g170
stp1410
Rp1411
ag0
(g1180
g1034
(dp1412
g154
g461
sg143
g209
sg151
g152
sg157
g170
stp1413
Rp1414
ag0
(g1180
g1034
(dp1415
g154
g470
sg143
g144
sg151
g152
sg157
g145
stp1416
Rp1417
ag0
(g1180
g1034
(dp1418
g154
g479
sg143
g159
sg151
g152
sg157
g145
stp1419
Rp1420
ag0
(g1180
g1034
(dp1421
g154
g488
sg143
g219
sg151
g152
sg157
g145
stp1422
Rp1423
ag0
(g1180
g1034
(dp1424
g154
g497
sg143
g209
sg151
g152
sg157
g170
stp1425
Rp1426
ag0
(g1180
g1034
(dp1427
g154
g506
sg143
g238
sg151
g152
sg157
g170
stp1428
Rp1429
ag0
(g1180
g1034
(dp1430
g154
g515
sg143
g159
sg151
g152
sg157
g145
stp1431
Rp1432
ag0
(g1180
g1034
(dp1433
g154
g524
sg143
g190
sg151
g152
sg157
g145
stp1434
Rp1435
ag0
(g1180
g1034
(dp1436
g154
g533
sg143
g169
sg151
g152
sg157
g170
stp1437
Rp1438
ag0
(g1180
g1034
(dp1439
g154
g155
sg143
g144
sg151
g152
sg157
g145
stp1440
Rp1441
ag0
(g1180
g1034
(dp1442
g154
g550
sg143
g169
sg151
g152
sg157
g170
stp1443
Rp1444
ag0
(g1180
g1034
(dp1445
g154
g559
sg143
g180
sg151
g152
sg157
g170
stp1446
Rp1447
ag0
(g1180
g1034
(dp1448
g154
g568
sg143
g190
sg151
g152
sg157
g145
stp1449
Rp1450
ag0
(g1180
g1034
(dp1451
g154
g577
sg143
g238
sg151
g152
sg157
g170
stp1452
Rp1453
ag0
(g1180
g1034
(dp1454
g154
g586
sg143
g219
sg151
g152
sg157
g145
stp1455
Rp1456
ag0
(g1180
g1034
(dp1457
g154
g595
sg143
g209
sg151
g152
sg157
g170
stp1458
Rp1459
ag0
(g1180
g1034
(dp1460
g154
g604
sg143
g219
sg151
g152
sg157
g145
stp1461
Rp1462
ag0
(g1180
g1034
(dp1463
g154
g613
sg143
g169
sg151
g152
sg157
g170
stp1464
Rp1465
ag0
(g1180
g1034
(dp1466
g154
g622
sg143
g159
sg151
g152
sg157
g145
stp1467
Rp1468
ag0
(g1180
g1034
(dp1469
g154
g631
sg143
g180
sg151
g152
sg157
g170
stp1470
Rp1471
ag0
(g1180
g1034
(dp1472
g154
g640
sg143
g144
sg151
g152
sg157
g145
stp1473
Rp1474
ag0
(g1180
g1034
(dp1475
g154
g649
sg143
g238
sg151
g152
sg157
g170
stp1476
Rp1477
ag0
(g1180
g1034
(dp1478
g154
g658
sg143
g190
sg151
g152
sg157
g145
stp1479
Rp1480
ag0
(g1180
g1034
(dp1481
g154
g667
sg143
g238
sg151
g152
sg157
g170
stp1482
Rp1483
ag0
(g1180
g1034
(dp1484
g154
g676
sg143
g144
sg151
g152
sg157
g145
stp1485
Rp1486
ag0
(g1180
g1034
(dp1487
g154
g685
sg143
g219
sg151
g152
sg157
g145
stp1488
Rp1489
ag0
(g1180
g1034
(dp1490
g154
g694
sg143
g159
sg151
g152
sg157
g145
stp1491
Rp1492
ag0
(g1180
g1034
(dp1493
g154
g703
sg143
g209
sg151
g152
sg157
g170
stp1494
Rp1495
ag0
(g1180
g1034
(dp1496
g154
g712
sg143
g169
sg151
g152
sg157
g170
stp1497
Rp1498
ag0
(g1180
g1034
(dp1499
g154
g721
sg143
g180
sg151
g152
sg157
g170
stp1500
Rp1501
ag0
(g1180
g1034
(dp1502
g154
g730
sg143
g190
sg151
g152
sg157
g145
stp1503
Rp1504
ag0
(g1180
g1034
(dp1505
g154
g739
sg143
g190
sg151
g152
sg157
g145
stp1506
Rp1507
ag0
(g1180
g1034
(dp1508
g154
g748
sg143
g144
sg151
g152
sg157
g145
stp1509
Rp1510
ag0
(g1180
g1034
(dp1511
g154
g757
sg143
g180
sg151
g152
sg157
g170
stp1512
Rp1513
ag0
(g1180
g1034
(dp1514
g154
g766
sg143
g238
sg151
g152
sg157
g170
stp1515
Rp1516
ag0
(g1180
g1034
(dp1517
g154
g775
sg143
g219
sg151
g152
sg157
g145
stp1518
Rp1519
ag0
(g1180
g1034
(dp1520
g154
g784
sg143
g169
sg151
g152
sg157
g170
stp1521
Rp1522
ag0
(g1180
g1034
(dp1523
g154
g793
sg143
g159
sg151
g152
sg157
g145
stp1524
Rp1525
ag0
(g1180
g1034
(dp1526
g154
g802
sg143
g169
sg151
g152
sg157
g170
stp1527
Rp1528
ag0
(g1180
g1034
(dp1529
g154
g811
sg143
g144
sg151
g152
sg157
g145
stp1530
Rp1531
ag0
(g1180
g1034
(dp1532
g154
g820
sg143
g219
sg151
g152
sg157
g145
stp1533
Rp1534
ag0
(g1180
g1034
(dp1535
g154
g829
sg143
g159
sg151
g152
sg157
g145
stp1536
Rp1537
ag0
(g1180
g1034
(dp1538
g154
g838
sg143
g190
sg151
g152
sg157
g145
stp1539
Rp1540
ag0
(g1180
g1034
(dp1541
g154
g847
sg143
g209
sg151
g152
sg157
g170
stp1542
Rp1543
ag0
(g1180
g1034
(dp1544
g154
g856
sg143
g180
sg151
g152
sg157
g170
stp1545
Rp1546
ag0
(g1180
g1034
(dp1547
g154
g865
sg143
g209
sg151
g152
sg157
g170
stp1548
Rp1549
ag0
(g1180
g1034
(dp1550
g154
g874
sg143
g238
sg151
g152
sg157
g170
stp1551
Rp1552
ag0
(g1180
g1034
(dp1553
g154
g883
sg143
g169
sg151
g152
sg157
g170
stp1554
Rp1555
ag0
(g1180
g1034
(dp1556
g154
g892
sg143
g180
sg151
g152
sg157
g170
stp1557
Rp1558
ag0
(g1180
g1034
(dp1559
g154
g901
sg143
g180
sg151
g152
sg157
g170
stp1560
Rp1561
ag0
(g1180
g1034
(dp1562
g154
g910
sg143
g144
sg151
g152
sg157
g145
stp1563
Rp1564
ag0
(g1180
g1034
(dp1565
g154
g919
sg143
g144
sg151
g152
sg157
g145
stp1566
Rp1567
ag0
(g1180
g1034
(dp1568
g154
g928
sg143
g159
sg151
g152
sg157
g145
stp1569
Rp1570
ag0
(g1180
g1034
(dp1571
g154
g937
sg143
g209
sg151
g152
sg157
g170
stp1572
Rp1573
ag0
(g1180
g1034
(dp1574
g154
g946
sg143
g190
sg151
g152
sg157
g145
stp1575
Rp1576
ag0
(g1180
g1034
(dp1577
g154
g955
sg143
g219
sg151
g152
sg157
g145
stp1578
Rp1579
ag0
(g1180
g1034
(dp1580
g154
g964
sg143
g238
sg151
g152
sg157
g170
stp1581
Rp1582
ag0
(g1180
g1034
(dp1583
g154
g973
sg143
g238
sg151
g152
sg157
g170
stp1584
Rp1585
ag0
(g1180
g1034
(dp1586
g154
g982
sg143
g219
sg151
g152
sg157
g145
stp1587
Rp1588
ag0
(g1180
g1034
(dp1589
g154
g991
sg143
g190
sg151
g152
sg157
g145
stp1590
Rp1591
ag0
(g1180
g1034
(dp1592
g154
g1000
sg143
g159
sg151
g152
sg157
g145
stp1593
Rp1594
ag0
(g1180
g1034
(dp1595
g154
g1009
sg143
g209
sg151
g152
sg157
g170
stp1596
Rp1597
ag0
(g1180
g1034
(dp1598
g154
g1018
sg143
g169
sg151
g152
sg157
g170
stp1599
Rp1600
asg1187
Nsg1188
g1016
sg1189
I96
sg1190
I0
sg1191
I96
sbasS'savePickle'
p1601
I00
sb.